
 Start  Stop   Length Name                   Class
 00000H 05B63H 05B64H _TEXT                  CODE
 05B64H 05B64H 00000H C_ETEXT                ENDCODE
 05B70H 05BB1H 00042H NULL                   BEGDATA
 05BB2H 0831FH 0276EH _DATA                  DATA
 08320H 0832DH 0000EH CDATA                  DATA
 0832EH 0832EH 00000H XIFB                   DATA
 0832EH 0832EH 00000H XIF                    DATA
 0832EH 0832EH 00000H XIFE                   DATA
 0832EH 0832EH 00000H XIB                    DATA
 0832EH 0832EH 00000H XI                     DATA
 0832EH 0832EH 00000H XIE                    DATA
 0832EH 0832EH 00000H XPB                    DATA
 0832EH 0832FH 00002H XP                     DATA
 08330H 08330H 00000H XPE                    DATA
 08330H 08330H 00000H XCB                    DATA
 08330H 08330H 00000H XC                     DATA
 08330H 08330H 00000H XCE                    DATA
 08330H 08330H 00000H XCFB                   DATA
 08330H 08330H 00000H XCF                    DATA
 08330H 08330H 00000H XCFE                   DATA
 08330H 08330H 00000H CONST                  CONST
 08330H 08337H 00008H HDR                    MSG
 08338H 08405H 000CEH MSG                    MSG
 08406H 08407H 00002H PAD                    MSG
 08408H 08408H 00001H EPAD                   MSG
 0840AH 0ABDBH 027D2H _BSS                   BSS
 0ABDCH 0ABDCH 00000H XOB                    BSS
 0ABDCH 0ABDCH 00000H XO                     BSS
 0ABDCH 0ABDCH 00000H XOE                    BSS
 0ABE0H 0C087H 014A8H c_common               BSS
 0C090H 0C88FH 00800H STACK                  STACK

 Origin   Group
 05B7:0   DGROUP

  Address         Publics by Name

 05B7:2660       STKHQQ
 05B7:62A6       _airKilled
 05B7:50E2       _airMissed
 0000:25D6       _allocBuffer
 0000:01FA       _animateFlightPath
 05B7:5D0A       _animDone
 05B7:1F30       _awardColor
 05B7:1F38       _awardFont
 05B7:1F42       _awardPage
 0000:1191       _blinkWidget
 0000:5802       _brkctl
 0000:0A31       _calcMissionScore
 0000:276E       _checkQuitFlag
 0000:2CD0       _cleanup
 0000:30BC       _clearKeybuf
 0000:3680       _clearRect
 0000:534A       _close
 0000:2FE8       _closeFileWrapper
 05B7:5DF0       _colorAnimEnabled
 05B7:629C       _colorAnimIdx
 05B7:62A2       _colorTablePtr
 05B7:4865       _commData
 0000:4B12       _copyJoystickData
 05B7:629E       _curRecordIdx
 05B7:570A       _cursorX
 05B7:570C       _cursorY
 05B7:0590       _dat_0042
 05B7:052E       _dat_1c8e
 05B7:430F       _dat_4034
 05B7:4319       _dat_4040
 05B7:451F       _dat_4246
 05B7:5D02       _dat_424e
 05B7:54FC       _dat_4804
 05B7:4521       _dat_4a2a
 05B7:47F3       _dat_5512
 05B7:485B       _dat_55de
 05B7:4863       _dat_5ab4
 0000:454A       _debriefMainLoop
 0000:3E3B       _decodePic
 0000:3D5F       _decodePicRaw
 0000:4932       _dosExit
 0000:4075       _dos_alloc
 0000:409B       _dos_free
 0000:353B       _dos_printstring
 0000:050C       _drawClippedLine
 0000:44A5       _drawClippedLineEx
 0000:07B1       _drawEventSprite
 0000:05EF       _drawFarString
 0000:0649       _drawFlightLine
 0000:0D47       _drawFlightPath
 0000:0539       _drawMapPixel
 0000:1855       _drawMenuItem
 0000:2D03       _drawStringAt
 0000:05C7       _drawStringAtPos
 0000:2D2A       _drawStringCentered
 0000:0692       _drawWrappedText
 05B7:289A       _edata
 05B7:580E       _ejectedFlag
 05B7:6520       _end
 05B7:580F       _enterPressed
 05B7:264E       _environ
 05B7:2627       _errno
 0000:4CA0       _exit
 0000:32A6       _farStrcpy
 0000:5090       _fclose
 0000:52A2       _fflush
 0000:3BA6       _fileClose
 0000:4963       _fileSeek
 05B7:4A6D       _flightRecords
 0000:514A       _flushall
 0000:0113       _formatFlightTime
 0000:5648       _free
 0000:260A       _freeBuffer
 05B7:4313       _gameData
 0000:448D       _getTimeOfDay
 05B7:4869       _gfxBufSeg
 05B7:16E6       _gfx_commitPage
 05B7:1628       _gfx_copyRect
 05B7:164B       _gfx_getAuxBufSize
 05B7:156F       _gfx_jump_05_drawString
 05B7:159C       _gfx_jump_0e_setCurBuf
 05B7:1556       _gfx_jump_0_alloc
 05B7:15AB       _gfx_jump_11_blitSprite
 05B7:15C9       _gfx_jump_17_bufSize
 05B7:15FB       _gfx_jump_21
 05B7:1623       _gfx_jump_29_switchColor
 05B7:1641       _gfx_jump_2f_charWidth
 05B7:16AA       _gfx_jump_44_setDac
 05B7:16AF       _gfx_jump_45_retrace
 05B7:16B4       _gfx_jump_46_retrace2
 05B7:16CD       _gfx_jump_4b_storeBufPtr
 05B7:16F5       _gfx_jump_53
 05B7:1687       _gfx_setFadeSteps
 05B7:16F0       _gfx_setMonoFlag
 05B7:570E       _gridFlags
 05B7:62A4       _groundKilled
 05B7:54EE       _groundMissed
 05B7:6298       _hasVgaMode
 05B7:52E6       _hercFlag
 0000:304C       _initGraphics
 05B7:5DF2       _inputChanged
 0000:3A72       _installCBreakHandler
 0000:33B9       _intDispatch
 0000:061B       _isPointInRect
 0000:5938       _itoa
 05B7:1B48       _joyAxisX
 05B7:1B49       _joyAxisY
 05B7:5DEE       _joyRepeatFlag
 05B7:5A10       _lastDrawX
 05B7:5D00       _lastDrawY
 0000:269C       _loadFileSection
 0000:26D4       _loadFileSectionEx
 0000:2FF6       _loadPic
 0000:279C       _loadPicFromFile
 0000:27C6       _loadPicFromFileAt
 0000:259E       _loadTheaterIndex
 0000:2C35       _loadWorldData
 0000:2804       _loadWorldStrings
 0000:0010       _main
 0000:565A       _malloc
 0000:04DA       _mapToScreenX
 0000:04F3       _mapToScreenY
 05B7:0526       _mapViewX1
 05B7:052A       _mapViewX2
 05B7:0528       _mapViewY1
 05B7:052C       _mapViewY2
 05B7:024A       _medalNames
 05B7:1F74       _medalScores
 05B7:1F76       _medalThresholds
 0000:3354       _memcopy
 05B7:1718       _misc_jump_5a_keybuf
 05B7:171D       _misc_jump_5b_getkey
 05B7:1727       _misc_jump_5d_readJoy
 05B7:172C       _misc_jump_5e_clearKeyFlags
 05B7:5076       _missionResult
 05B7:5070       _missionScore
 05B7:6512       _missionScoreHi
 0000:32DD       _mystrcat
 0000:2FCC       _mystrcpy
 0000:2EDF       _my_itoa
 0000:2DA4       _my_ltoa
 05B7:0C6A       _nightMission
 0000:536A       _open
 0000:3AF8       _openFile
 0000:3B4F       _openFileRaw
 0000:2644       _openFileRead
 0000:2FBA       _openFileWrapper
 0000:3020       _openShowPic
 0000:5954       _outp
 0000:278A       _outportByte
 0000:0552       _plotMapPoint
 0000:4A62       _pollJoystick
 05B7:0502       _popupSpriteX
 05B7:04DE       _popupSpriteY
 05B7:5706       _popupVisible
 05B7:5074       _popupX
 05B7:50E0       _popupY
 05B7:6510       _prevDrawX
 05B7:6514       _prevDrawY
 05B7:5500       _primaryHit
 0000:1226       _processDebriefInput
 0000:17B1       _processMenuItems
 05B7:1F5C       _promoScores
 05B7:1F5E       _promoThresholds
 05B7:1B4C       _quitFlag
 05B7:237C       _randSeed
 05B7:237E       _randState
 05B7:023C       _rankNames
 0000:266A       _readFileAt
 0000:2682       _readFileAtEx
 0000:3C80       _readFileAtExRaw
 0000:3BF3       _readFileAtRaw
 0000:2656       _readFileBlock
 0000:3BC8       _readFileRaw
 0000:2C68       _readFromWorldBuf
 0000:2C9C       _readFromWorldFile
 0000:2B4C       _readWorldData
 0000:59C2       _remove
 0000:3A95       _restoreCbreakHandler
 0000:4267       _restoreTimerIrqHandler
 0000:49DC       _routine_140
 0000:2786       _routine_5
 0000:2788       _routine_6
 05B7:06FE       _samDataTable
 05B7:64A8       _samKilled
 05B7:52E4       _samMissed
 05B7:5502       _scoreString
 05B7:62A0       _secondaryHit
 0000:04C9       _seedRandom
 05B7:5708       _selectedMenuItem
 0000:2265       _selectMenuItem
 0000:4229       _setTimerIrqHandler
 0000:3549       _setupOverlaySlots
 0000:30A7       _setupWorldBufPtr
 0000:0E30       _showEventPopup
 0000:3CED       _showPicFile
 0000:2856       _showPostMissionAwards
 05B7:5DE8       _slotInfoTable
 05B7:2128       _spriteAir
 05B7:2148       _spriteAirBlink
 05B7:5704       _spriteBufSeg
 05B7:21A8       _spriteGround
 05B7:21C8       _spriteGroundBlink
 05B7:2168       _spriteSam
 05B7:2188       _spriteSamBlink
 05B7:64AA       _spriteToggle
 05B7:2228       _spriteWaypoint
 05B7:2248       _spriteWaypointBlink
 0000:2632       _srandInit
 0000:5636       _stackavail
 0000:58C6       _strcat
 0000:5906       _strcpy
 0000:2D61       _stringWidth
 05B7:0044       _str_1stLt
 05B7:00CE       _str_afc
 05B7:0086       _str_afcm
 05B7:049E       _str_allocError
 05B7:03F2       _str_bailedDied
 05B7:0054       _str_captain
 05B7:03E8       _str_captured
 05B7:02B4       _str_careerTotal
 05B7:00E0       _str_cmoh
 05B7:0072       _str_colonel
 05B7:03D2       _str_crashed
 05B7:0438       _str_cumulative
 05B7:0436       _str_cumulative2
 05B7:04C8       _str_deallocError
 05B7:015E       _str_deathMsg1
 05B7:0182       _str_deathMsg2
 05B7:0154       _str_deathPic
 05B7:0108       _str_deskMsg1
 05B7:0136       _str_deskMsg2
 05B7:00FE       _str_deskPic
 05B7:0346       _str_destroyed1
 05B7:0352       _str_destroyed2
 05B7:036C       _str_destroyed3
 05B7:0344       _str_destroyed4
 05B7:00A4       _str_dfc
 05B7:0276       _str_dot1
 05B7:0290       _str_dot2
 05B7:02B2       _str_dot3
 05B7:02C2       _str_dot4
 05B7:0312       _str_dot5
 05B7:032C       _str_dot6
 05B7:0042       _str_emptyRank
 05B7:02F2       _str_enemyPlanes
 05B7:0300       _str_friendlyTargets
 05B7:007C       _str_general
 05B7:03DA       _str_goodBailout
 05B7:0400       _str_goodLanding
 05B7:03A2       _str_hitBy
 05B7:047C       _str_inFlight
 05B7:0066       _str_ltColonel
 05B7:005E       _str_major
 05B7:0208       _str_medalMsg1
 05B7:0236       _str_medalMsg2
 05B7:01FE       _str_medalPic
 05B7:03AA       _str_missile
 05B7:03C4       _str_missionEnd
 05B7:032E       _str_missionEvent
 05B7:0280       _str_missionRating1
 05B7:031C       _str_missionRating2
 05B7:0444       _str_missionRating3
 05B7:02C4       _str_missionSummary
 05B7:02A2       _str_notRecorded
 05B7:02E4       _str_otherTargets
 05B7:0278       _str_overall1
 05B7:0314       _str_overall2
 05B7:0254       _str_pressExit
 05B7:0456       _str_pressNext
 05B7:0454       _str_pressSelect
 05B7:040E       _str_primaryObj
 05B7:02D4       _str_priSecTargets
 05B7:01B6       _str_promoMsg1
 05B7:01E2       _str_promoMsg2
 05B7:01AC       _str_promoPic
 05B7:037A       _str_rearmed1
 05B7:038E       _str_rearmed2
 05B7:0378       _str_rearmed3
 05B7:0422       _str_secndryObj
 05B7:0360       _str_shotDown
 05B7:035E       _str_shotDown2
 05B7:00C0       _str_silverStar
 05B7:03B4       _str_takeoffPoint
 05B7:033C       _str_time
 05B7:0494       _str_timeFormat
 05B7:0488       _str_timeLabel
 05B7:0492       _str_timeZeros
 05B7:0292       _str_trainingScore
 05B7:5D0C       _target1MiscBits
 05B7:54F0       _target1Type
 05B7:5D16       _target2MiscBits
 05B7:54F4       _target2Type
 05B7:64AC       _textBuf
 05B7:1F28       _timerCounter
 05B7:1F2A       _timerCounter2
 05B7:1F2B       _timerCounter3
 05B7:1F0D       _timerHandlerInstalled
 0000:05A9       _timerWait
 05B7:507A       _unitTypeTable
 0000:59C2       _unlink
 05B7:20E8       _var_102
 05B7:289B       _var_151
 05B7:289D       _var_152
 05B7:5072       _var_192
 05B7:4A6B       _var_193
 05B7:47F1       _var_203
 05B7:485D       _var_216
 05B7:5DF4       _var_425c
 05B7:6516       _vgaBufOffset
 05B7:50DE       _vgaBufSeg
 05B7:5DF3       _vgaBufSeg2
 0000:270C       _waitForKeyOrJoy
 05B7:5702       _worldBufHandle
 05B7:54EC       _worldDataReady
 05B7:5A12       _worldStringBuf
 05B7:5D20       _worldStrings
 0000:550E       _write
 05B7:260C       __abrkp
 05B7:25BC       __abrktb
 05B7:260C       __abrktbe
 05B7:260E       __acfinfo
 0000:9876  Abs  __acrtmsg
 0000:9876  Abs  __acrtused
 05B7:265E       __adbgmsg
 05B7:25BA       __aexit_rtn
 05B7:261B       __aintdiv
 0000:56A3       __amalloc
 0000:57E2       __amallocbrk
 05B7:27AA       __amblksiz
 0000:5786       __amexpand
 0000:57C0       __amlink
 0000:4BCD       __amsg_exit
 0000:59D0       __aNldiv
 0000:5A6C       __aNlmul
 0000:5AA0       __aNlrem
 0000:5B42       __aNNaldiv
 0000:5A6C       __aNulmul
 05B7:27A4       __aseg1
 05B7:279A       __asegds
 05B7:27AC       __asegh
 05B7:27A6       __asegn
 05B7:27A8       __asegr
 05B7:25B6       __asizds
 0000:4B2A       __astart
 05B7:25B8       __atopsp
 05B7:62A8       __buferr
 05B7:5810       __bufin
 05B7:50E4       __bufout
 05B7:267C       __cflush
 05B7:2656       __child
 0000:4D72       __chkstk
 0000:4BDC       __cinit
 0000:4BBE       __cintDIV
 0000:5962       __cltoasub
 0000:5372       __copensub
 0000:4CFC       __ctermsub
 0000:54FD       __cXENIXtoDOSmode
 0000:596E       __cxtoa
 05B7:2632       __doserrno
 0000:503C       __dosret0
 0000:504F       __dosretax
 0000:5044       __dosreturn
 05B7:262F       __dosvermajor
 05B7:2630       __dosverminor
 0000:4CB7       __exit
 05B7:261F       __fac
 0000:4D4C       __FF_MSGBANNER
 05B7:2798       __fmode
 05B7:27B2       __fpinit
 0000:4D6C       __fptrap
 0000:517C       __freebuf
 0000:5310       __getstream
 05B7:2659       __intno
 05B7:267E       __iob
 05B7:271E       __iob2
 05B7:2798       __iomode
 05B7:2796       __lastiob
 0000:505C       __maperror
 0000:4FFA       __myalloc
 05B7:2634       __nfile
 0000:5648       __nfree
 0000:565A       __nmalloc
 0000:4FA6       __NMSG_TEXT
 0000:4FD1       __NMSG_WRITE
 0000:4D88       __nullcheck
 0000:51AA       __openfile
 05B7:2632       __oserr
 05B7:2636       __osfile
 05B7:262F       __osmajor
 05B7:2630       __osminor
 05B7:2631       __osmode
 05B7:262F       __osversion
 05B7:2658       __ovlflag
 05B7:265A       __ovlvec
 05B7:2650       __pgmptr
 05B7:262D       __psp
 05B7:262B       __pspadr
 05B7:27AC       __QChdata
 0000:4DAA       __setargv
 0000:4F38       __setenvp
 05B7:2629       __umaskval
 05B7:264A       ___argc
 05B7:264C       ___argv

  Address         Publics by Value

 0000:0010       _main
 0000:0113       _formatFlightTime
 0000:01FA       _animateFlightPath
 0000:04C9       _seedRandom
 0000:04DA       _mapToScreenX
 0000:04F3       _mapToScreenY
 0000:050C       _drawClippedLine
 0000:0539       _drawMapPixel
 0000:0552       _plotMapPoint
 0000:05A9       _timerWait
 0000:05C7       _drawStringAtPos
 0000:05EF       _drawFarString
 0000:061B       _isPointInRect
 0000:0649       _drawFlightLine
 0000:0692       _drawWrappedText
 0000:07B1       _drawEventSprite
 0000:0A31       _calcMissionScore
 0000:0D47       _drawFlightPath
 0000:0E30       _showEventPopup
 0000:1191       _blinkWidget
 0000:1226       _processDebriefInput
 0000:17B1       _processMenuItems
 0000:1855       _drawMenuItem
 0000:2265       _selectMenuItem
 0000:259E       _loadTheaterIndex
 0000:25D6       _allocBuffer
 0000:260A       _freeBuffer
 0000:2632       _srandInit
 0000:2644       _openFileRead
 0000:2656       _readFileBlock
 0000:266A       _readFileAt
 0000:2682       _readFileAtEx
 0000:269C       _loadFileSection
 0000:26D4       _loadFileSectionEx
 0000:270C       _waitForKeyOrJoy
 0000:276E       _checkQuitFlag
 0000:2786       _routine_5
 0000:2788       _routine_6
 0000:278A       _outportByte
 0000:279C       _loadPicFromFile
 0000:27C6       _loadPicFromFileAt
 0000:2804       _loadWorldStrings
 0000:2856       _showPostMissionAwards
 0000:2B4C       _readWorldData
 0000:2C35       _loadWorldData
 0000:2C68       _readFromWorldBuf
 0000:2C9C       _readFromWorldFile
 0000:2CD0       _cleanup
 0000:2D03       _drawStringAt
 0000:2D2A       _drawStringCentered
 0000:2D61       _stringWidth
 0000:2DA4       _my_ltoa
 0000:2EDF       _my_itoa
 0000:2FBA       _openFileWrapper
 0000:2FCC       _mystrcpy
 0000:2FE8       _closeFileWrapper
 0000:2FF6       _loadPic
 0000:3020       _openShowPic
 0000:304C       _initGraphics
 0000:30A7       _setupWorldBufPtr
 0000:30BC       _clearKeybuf
 0000:32A6       _farStrcpy
 0000:32DD       _mystrcat
 0000:3354       _memcopy
 0000:33B9       _intDispatch
 0000:353B       _dos_printstring
 0000:3549       _setupOverlaySlots
 0000:3680       _clearRect
 0000:3A72       _installCBreakHandler
 0000:3A95       _restoreCbreakHandler
 0000:3AF8       _openFile
 0000:3B4F       _openFileRaw
 0000:3BA6       _fileClose
 0000:3BC8       _readFileRaw
 0000:3BF3       _readFileAtRaw
 0000:3C80       _readFileAtExRaw
 0000:3CED       _showPicFile
 0000:3D5F       _decodePicRaw
 0000:3E3B       _decodePic
 0000:4075       _dos_alloc
 0000:409B       _dos_free
 0000:4229       _setTimerIrqHandler
 0000:4267       _restoreTimerIrqHandler
 0000:448D       _getTimeOfDay
 0000:44A5       _drawClippedLineEx
 0000:454A       _debriefMainLoop
 0000:4932       _dosExit
 0000:4963       _fileSeek
 0000:49DC       _routine_140
 0000:4A62       _pollJoystick
 0000:4B12       _copyJoystickData
 0000:4B2A       __astart
 0000:4BBE       __cintDIV
 0000:4BCD       __amsg_exit
 0000:4BDC       __cinit
 0000:4CA0       _exit
 0000:4CB7       __exit
 0000:4CFC       __ctermsub
 0000:4D4C       __FF_MSGBANNER
 0000:4D6C       __fptrap
 0000:4D72       __chkstk
 0000:4D88       __nullcheck
 0000:4DAA       __setargv
 0000:4F38       __setenvp
 0000:4FA6       __NMSG_TEXT
 0000:4FD1       __NMSG_WRITE
 0000:4FFA       __myalloc
 0000:503C       __dosret0
 0000:5044       __dosreturn
 0000:504F       __dosretax
 0000:505C       __maperror
 0000:5090       _fclose
 0000:514A       _flushall
 0000:517C       __freebuf
 0000:51AA       __openfile
 0000:52A2       _fflush
 0000:5310       __getstream
 0000:534A       _close
 0000:536A       _open
 0000:5372       __copensub
 0000:54FD       __cXENIXtoDOSmode
 0000:550E       _write
 0000:5636       _stackavail
 0000:5648       _free
 0000:5648       __nfree
 0000:565A       _malloc
 0000:565A       __nmalloc
 0000:56A3       __amalloc
 0000:5786       __amexpand
 0000:57C0       __amlink
 0000:57E2       __amallocbrk
 0000:5802       _brkctl
 0000:58C6       _strcat
 0000:5906       _strcpy
 0000:5938       _itoa
 0000:5954       _outp
 0000:5962       __cltoasub
 0000:596E       __cxtoa
 0000:59C2       _remove
 0000:59C2       _unlink
 0000:59D0       __aNldiv
 0000:5A6C       __aNulmul
 0000:5A6C       __aNlmul
 0000:5AA0       __aNlrem
 0000:5B42       __aNNaldiv
 05B7:0042       _str_emptyRank
 05B7:0044       _str_1stLt
 05B7:0054       _str_captain
 05B7:005E       _str_major
 05B7:0066       _str_ltColonel
 05B7:0072       _str_colonel
 05B7:007C       _str_general
 05B7:0086       _str_afcm
 05B7:00A4       _str_dfc
 05B7:00C0       _str_silverStar
 05B7:00CE       _str_afc
 05B7:00E0       _str_cmoh
 05B7:00FE       _str_deskPic
 05B7:0108       _str_deskMsg1
 05B7:0136       _str_deskMsg2
 05B7:0154       _str_deathPic
 05B7:015E       _str_deathMsg1
 05B7:0182       _str_deathMsg2
 05B7:01AC       _str_promoPic
 05B7:01B6       _str_promoMsg1
 05B7:01E2       _str_promoMsg2
 05B7:01FE       _str_medalPic
 05B7:0208       _str_medalMsg1
 05B7:0236       _str_medalMsg2
 05B7:023C       _rankNames
 05B7:024A       _medalNames
 05B7:0254       _str_pressExit
 05B7:0276       _str_dot1
 05B7:0278       _str_overall1
 05B7:0280       _str_missionRating1
 05B7:0290       _str_dot2
 05B7:0292       _str_trainingScore
 05B7:02A2       _str_notRecorded
 05B7:02B2       _str_dot3
 05B7:02B4       _str_careerTotal
 05B7:02C2       _str_dot4
 05B7:02C4       _str_missionSummary
 05B7:02D4       _str_priSecTargets
 05B7:02E4       _str_otherTargets
 05B7:02F2       _str_enemyPlanes
 05B7:0300       _str_friendlyTargets
 05B7:0312       _str_dot5
 05B7:0314       _str_overall2
 05B7:031C       _str_missionRating2
 05B7:032C       _str_dot6
 05B7:032E       _str_missionEvent
 05B7:033C       _str_time
 05B7:0344       _str_destroyed4
 05B7:0346       _str_destroyed1
 05B7:0352       _str_destroyed2
 05B7:035E       _str_shotDown2
 05B7:0360       _str_shotDown
 05B7:036C       _str_destroyed3
 05B7:0378       _str_rearmed3
 05B7:037A       _str_rearmed1
 05B7:038E       _str_rearmed2
 05B7:03A2       _str_hitBy
 05B7:03AA       _str_missile
 05B7:03B4       _str_takeoffPoint
 05B7:03C4       _str_missionEnd
 05B7:03D2       _str_crashed
 05B7:03DA       _str_goodBailout
 05B7:03E8       _str_captured
 05B7:03F2       _str_bailedDied
 05B7:0400       _str_goodLanding
 05B7:040E       _str_primaryObj
 05B7:0422       _str_secndryObj
 05B7:0436       _str_cumulative2
 05B7:0438       _str_cumulative
 05B7:0444       _str_missionRating3
 05B7:0454       _str_pressSelect
 05B7:0456       _str_pressNext
 05B7:047C       _str_inFlight
 05B7:0488       _str_timeLabel
 05B7:0492       _str_timeZeros
 05B7:0494       _str_timeFormat
 05B7:049E       _str_allocError
 05B7:04C8       _str_deallocError
 05B7:04DE       _popupSpriteY
 05B7:0502       _popupSpriteX
 05B7:0526       _mapViewX1
 05B7:0528       _mapViewY1
 05B7:052A       _mapViewX2
 05B7:052C       _mapViewY2
 05B7:052E       _dat_1c8e
 05B7:0590       _dat_0042
 05B7:06FE       _samDataTable
 05B7:0C6A       _nightMission
 05B7:1556       _gfx_jump_0_alloc
 05B7:156F       _gfx_jump_05_drawString
 05B7:159C       _gfx_jump_0e_setCurBuf
 05B7:15AB       _gfx_jump_11_blitSprite
 05B7:15C9       _gfx_jump_17_bufSize
 05B7:15FB       _gfx_jump_21
 05B7:1623       _gfx_jump_29_switchColor
 05B7:1628       _gfx_copyRect
 05B7:1641       _gfx_jump_2f_charWidth
 05B7:164B       _gfx_getAuxBufSize
 05B7:1687       _gfx_setFadeSteps
 05B7:16AA       _gfx_jump_44_setDac
 05B7:16AF       _gfx_jump_45_retrace
 05B7:16B4       _gfx_jump_46_retrace2
 05B7:16CD       _gfx_jump_4b_storeBufPtr
 05B7:16E6       _gfx_commitPage
 05B7:16F0       _gfx_setMonoFlag
 05B7:16F5       _gfx_jump_53
 05B7:1718       _misc_jump_5a_keybuf
 05B7:171D       _misc_jump_5b_getkey
 05B7:1727       _misc_jump_5d_readJoy
 05B7:172C       _misc_jump_5e_clearKeyFlags
 05B7:1B48       _joyAxisX
 05B7:1B49       _joyAxisY
 05B7:1B4C       _quitFlag
 05B7:1F0D       _timerHandlerInstalled
 05B7:1F28       _timerCounter
 05B7:1F2A       _timerCounter2
 05B7:1F2B       _timerCounter3
 05B7:1F30       _awardColor
 05B7:1F38       _awardFont
 05B7:1F42       _awardPage
 05B7:1F5C       _promoScores
 05B7:1F5E       _promoThresholds
 05B7:1F74       _medalScores
 05B7:1F76       _medalThresholds
 05B7:20E8       _var_102
 05B7:2128       _spriteAir
 05B7:2148       _spriteAirBlink
 05B7:2168       _spriteSam
 05B7:2188       _spriteSamBlink
 05B7:21A8       _spriteGround
 05B7:21C8       _spriteGroundBlink
 05B7:2228       _spriteWaypoint
 05B7:2248       _spriteWaypointBlink
 05B7:237C       _randSeed
 05B7:237E       _randState
 05B7:25B6       __asizds
 05B7:25B8       __atopsp
 05B7:25BA       __aexit_rtn
 05B7:25BC       __abrktb
 05B7:260C       __abrkp
 05B7:260C       __abrktbe
 05B7:260E       __acfinfo
 05B7:261B       __aintdiv
 05B7:261F       __fac
 05B7:2627       _errno
 05B7:2629       __umaskval
 05B7:262B       __pspadr
 05B7:262D       __psp
 05B7:262F       __osmajor
 05B7:262F       __dosvermajor
 05B7:262F       __osversion
 05B7:2630       __osminor
 05B7:2630       __dosverminor
 05B7:2631       __osmode
 05B7:2632       __doserrno
 05B7:2632       __oserr
 05B7:2634       __nfile
 05B7:2636       __osfile
 05B7:264A       ___argc
 05B7:264C       ___argv
 05B7:264E       _environ
 05B7:2650       __pgmptr
 05B7:2656       __child
 05B7:2658       __ovlflag
 05B7:2659       __intno
 05B7:265A       __ovlvec
 05B7:265E       __adbgmsg
 05B7:2660       STKHQQ
 05B7:267C       __cflush
 05B7:267E       __iob
 05B7:271E       __iob2
 05B7:2796       __lastiob
 05B7:2798       __iomode
 05B7:2798       __fmode
 05B7:279A       __asegds
 05B7:27A4       __aseg1
 05B7:27A6       __asegn
 05B7:27A8       __asegr
 05B7:27AA       __amblksiz
 05B7:27AC       __asegh
 05B7:27AC       __QChdata
 05B7:27B2       __fpinit
 05B7:289A       _edata
 05B7:289B       _var_151
 05B7:289D       _var_152
 0000:9876  Abs  __acrtused
 0000:9876  Abs  __acrtmsg
 05B7:430F       _dat_4034
 05B7:4313       _gameData
 05B7:4319       _dat_4040
 05B7:451F       _dat_4246
 05B7:4521       _dat_4a2a
 05B7:47F1       _var_203
 05B7:47F3       _dat_5512
 05B7:485B       _dat_55de
 05B7:485D       _var_216
 05B7:4863       _dat_5ab4
 05B7:4865       _commData
 05B7:4869       _gfxBufSeg
 05B7:4A6B       _var_193
 05B7:4A6D       _flightRecords
 05B7:5070       _missionScore
 05B7:5072       _var_192
 05B7:5074       _popupX
 05B7:5076       _missionResult
 05B7:507A       _unitTypeTable
 05B7:50DE       _vgaBufSeg
 05B7:50E0       _popupY
 05B7:50E2       _airMissed
 05B7:50E4       __bufout
 05B7:52E4       _samMissed
 05B7:52E6       _hercFlag
 05B7:54EC       _worldDataReady
 05B7:54EE       _groundMissed
 05B7:54F0       _target1Type
 05B7:54F4       _target2Type
 05B7:54FC       _dat_4804
 05B7:5500       _primaryHit
 05B7:5502       _scoreString
 05B7:5702       _worldBufHandle
 05B7:5704       _spriteBufSeg
 05B7:5706       _popupVisible
 05B7:5708       _selectedMenuItem
 05B7:570A       _cursorX
 05B7:570C       _cursorY
 05B7:570E       _gridFlags
 05B7:580E       _ejectedFlag
 05B7:580F       _enterPressed
 05B7:5810       __bufin
 05B7:5A10       _lastDrawX
 05B7:5A12       _worldStringBuf
 05B7:5D00       _lastDrawY
 05B7:5D02       _dat_424e
 05B7:5D0A       _animDone
 05B7:5D0C       _target1MiscBits
 05B7:5D16       _target2MiscBits
 05B7:5D20       _worldStrings
 05B7:5DE8       _slotInfoTable
 05B7:5DEE       _joyRepeatFlag
 05B7:5DF0       _colorAnimEnabled
 05B7:5DF2       _inputChanged
 05B7:5DF3       _vgaBufSeg2
 05B7:5DF4       _var_425c
 05B7:6298       _hasVgaMode
 05B7:629C       _colorAnimIdx
 05B7:629E       _curRecordIdx
 05B7:62A0       _secondaryHit
 05B7:62A2       _colorTablePtr
 05B7:62A4       _groundKilled
 05B7:62A6       _airKilled
 05B7:62A8       __buferr
 05B7:64A8       _samKilled
 05B7:64AA       _spriteToggle
 05B7:64AC       _textBuf
 05B7:6510       _prevDrawX
 05B7:6512       _missionScoreHi
 05B7:6514       _prevDrawY
 05B7:6516       _vgaBufOffset
 05B7:6520       _end

Program entry point at 0000:4B2A

Segments              31
Groups                1
Bytes in symbol table  32784
