LINK : warning L4021: no stack segment

 Start  Stop   Length Name                   Class
 00000H 00005H 00006H $3DEXCEPT_TEXT         CODE
 00006H 00CC3H 00CBEH $3DLOADER_TEXT         CODE
 00CC4H 01131H 0046EH $3DLOADT_TEXT          CODE
 01132H 0133DH 0020CH $3DOBJECT_TEXT         CODE
 0133EH 02989H 0164CH $3DPLANES_TEXT         CODE
 0298AH 02B05H 0017CH $3DSCENE_TEXT          CODE
 02B06H 02F97H 00492H AAAHIT_TEXT            CODE
 02F98H 030FFH 00168H ADICRT_TEXT            CODE
 03100H 03479H 0037AH ARMT_TEXT              CODE
 0347AH 03653H 001DAH AWACS_TEXT             CODE
 03654H 06EEDH 0389AH AWG9_TEXT              CODE
 06EEEH 07EF3H 01006H BOATS_TEXT             CODE
 07EF4H 08DC7H 00ED4H BULLETS_TEXT           CODE
 08DC8H 0BF8DH 031C6H CARR_TEXT              CODE
 0BF8EH 0C13DH 001B0H CARRAI_TEXT            CODE
 0C13EH 0DCD5H 01B98H CMDS_TEXT              CODE
 0DCD6H 1227BH 045A6H COCKPIT_TEXT           CODE
 1227CH 12B7BH 00900H DDD_TEXT               CODE
 12B7CH 13527H 009ACH EMSLOAD_TEXT           CODE
 13528H 16997H 03470H FLIGHT2_TEXT           CODE
 16998H 17513H 00B7CH FLIR_TEXT              CODE
 17514H 17881H 0036EH FLTMATH_TEXT           CODE
 17882H 17D9BH 0051AH GMAIN_TEXT             CODE
 17D9CH 19CC1H 01F26H HORZ_TEXT              CODE
 19CC2H 1A4B5H 007F4H HRM_TEXT               CODE
 1A4B6H 1B71FH 0126AH HSD_TEXT               CODE
 1B720H 1CDBDH 0169EH HUD2_TEXT              CODE
 1CDBEH 1D437H 0067AH JOYCAL_TEXT            CODE
 1D438H 1D58BH 00154H JOYREAD_TEXT           CODE
 1D58CH 1E6B5H 0112AH LOADMISS_TEXT          CODE
 1E6B6H 1E8CBH 00216H MAP_TEXT               CODE
 1E8CCH 1F875H 00FAAH MENUS_TEXT             CODE
 1F876H 2016FH 008FAH MESSAGE_TEXT           CODE
 20170H 203C1H 00252H MONOPRIN_TEXT          CODE
 203C2H 2122DH 00E6CH N3D_TEXT               CODE
 2122EH 21665H 00438H NPOLYS_TEXT            CODE
 21666H 230D7H 01A72H NQFLY_TEXT             CODE
 230D8H 230EFH 00018H OPTIONS_TEXT           CODE
 230F0H 231DFH 000F0H OVL_TEXT               CODE
 231E0H 2D76DH 0A58EH PLANES_TEXT            CODE
 2D76EH 33739H 05FCCH PLANES2_TEXT           CODE
 3373AH 3ADDBH 076A2H PLANES3_TEXT           CODE
 3ADDCH 3B8CBH 00AF0H RADARS_TEXT            CODE
 3B8CCH 3B8CCH 00000H RASTPORT_TEXT          CODE
 3B8CCH 3BFA3H 006D8H RIOHEAD_TEXT           CODE
 3BFA4H 3D185H 011E2H RIOMAP_TEXT            CODE
 3D186H 3F02FH 01EAAH SAMS_TEXT              CODE
 3F030H 3F0F1H 000C2H SAVEMODE_TEXT          CODE
 3F0F2H 3F3D9H 002E8H SOUND_TEXT             CODE
 3F3DAH 403CFH 00FF6H SPRITES_TEXT           CODE
 403D0H 40D5DH 0098EH STEALTH_TEXT           CODE
 40D5EH 40F4BH 001EEH SUPPORT_TEXT           CODE
 40F4CH 41A73H 00B28H TAC_TEXT               CODE
 41A74H 42511H 00A9EH TEWS_TEXT              CODE
 42512H 428C7H 003B6H TGTFLIR_TEXT           CODE
 428C8H 4356BH 00CA4H TID_TEXT               CODE
 4356CH 439BFH 00454H TRACK_TEXT             CODE
 439C0H 44CB7H 012F8H VDI_TEXT               CODE
 44CB8H 45C33H 00F7CH VIEWS_TEXT             CODE
 45C34H 45D09H 000D6H WORLD_TEXT             CODE
 45D0AH 45E87H 0017EH STUBS_TEXT             CODE
 45E88H 46EEEH 01067H _3D_TEXT               CODE
 46EF0H 46EF0H 00000H _3DMATRIX_TEXT         CODE
 46EF0H 471EAH 002FBH MPS_CODE               CODE
 471ECH 471ECH 00000H AAA_TEXT               CODE
 471ECH 47889H 0069EH CLIP_TEXT              CODE
 4788AH 47906H 0007DH CTRLVECT_TEXT          CODE
 47908H 47E35H 0052EH EGRAPH_TEXT            CODE
 47E36H 47FA2H 0016DH EMM_TEXT               CODE
 47FA4H 481A8H 00205H EMS_TEXT               CODE
 481AAH 48347H 0019EH JOYSTX_TEXT            CODE
 48348H 484C5H 0017EH KEYJOY_TEXT            CODE
 484C6H 484EEH 00029H LIBGLUE_TEXT           CODE
 484F0H 48C65H 00776H MATH_TEXT              CODE
 48C66H 48D19H 000B4H MCGA_TEXT              CODE
 48D1AH 48ED5H 001BCH MCGAMASK_TEXT          CODE
 48ED6H 4A5AEH 016D9H PASM_TEXT              CODE
 4A5B0H 4A649H 0009AH TRIG_TEXT              CODE
 4A64AH 4A713H 000CAH HORZASM_TEXT           CODE
 4A714H 4A714H 00000H ASMSTUB_TEXT           CODE
 4A720H 4A8FFH 001E0H COCKPIT5_DATA          FAR_DATA
 4A900H 4A9FFH 00100H HORZ5_DATA             FAR_DATA
 4AA00H 4AA57H 00058H _3DOBJS                DAT
 4AA60H 4E461H 03A02H _MATHTBLS              DAT
 4E470H 4F18FH 00D20H _FLLTBL                DAT
 4F190H 5018FH 01000H _GRTBL                 DAT2
 50190H 5418FH 04000H _MAPSG                 MP
 54190H 6058DH 0C3FEH FAR_BSS                FAR_BSS
 6058EH 68B71H 085E4H _DATA                  DATA
 68B72H 68BA5H 00034H CONST                  CONST
 68BA6H 68EF5H 00350H _BSS                   BSS
 68F00H 6FE15H 06F16H c_common               BSS

 Origin   Group
 6058:0   DGROUP

  Address         Publics by Name

 6058:85F0       CLIPLN
 6058:85EE       CLIPWD
 4A71:0004       FIXEGA
 4A5B:0073       F_COSDP
 4A5B:006F       F_SINDP
 4788:0078       HANDLE_CTRL_B
 46EF:001A       MAKEROTATIONMATRIX
 46EF:016C       MATMUL
 4A71:0004       SETOVRLYRP
 6058:85EA       XBGN
 6058:85EC       YBGN
 6058:8A7E       _AAACnt
 6058:E05E       _AAAi
 6058:ED0C       _AAAX
 6058:ED66       _AAAY
 6058:ED6A       _AAAZ
 4AA0:0000       _AAFIRE
 0310:0200       _AAGetPriority
 0310:0224       _AAGetStation
 0365:2B96       _aa_acquire
 0310:0280       _aa_cnt_weapons
 0310:0016       _AA_MODE
 6058:264C       _ABOVECLOUDS
 1751:01DA       _abs
 2D76:5E14       _absL
 6058:CECA       _Accel
 484F:0116       _ACosB
 6058:D952       _ACQLIST
 6058:E050       _ACQLISTCNT
 6058:D60E       _ACQ_PX
 6058:D8B2       _ACQ_PY
 231E:299C       _ActivatePlane
 0365:2FD6       _AddAcqList
 0365:363A       _AddFiringList
 1D58:0DE4       _AddGroundTarget
 6058:D61E       _ADDRESS
 231E:97CC       _AddSomePlanes2
 0365:28C4       _AddTargetFile
 02F9:0008       _AdiCrt
 5419:2A02       _AdiMask
 3F0F:0222       _AdjustSounds
 6058:8ACE       _AGEDTARGFILE
 6058:D8AC       _AGEDTARGFILECNT
 45D0:016A       _ag_err_msgs
 6058:8AA6       _ag_msg
 6058:E054       _ag_msg_cnt
 6058:8B58       _aiactions
 231E:7BAE       _AIBombTarget
 6058:A0EE       _AIBOMBX
 6058:A0F2       _AIBOMBY
 3373:5B50       _AICarrierLand
 231E:8A8A       _AICoreRadarCheck
 6058:A09C       _AIDETECT
 231E:9564       _AIFoxCall
 231E:7A58       _AIGetBombDist
 2D76:5038       _AIGoHome
 2D76:516E       _AIGoHome2
 6058:DA60       _ailoc
 3F0F:027A       _Aim9Sound
 6058:D392       _aipaths
 3D18:028C       _Air2GroundHoming
 231E:8A26       _AIRadarForwardCheck
 231E:8A58       _AIRadarRearCheck
 3D18:1186       _AirKill
 6058:9DEE       _AirSpeed
 6058:B11C       _AIRTGT
 231E:929A       _AISanitizeCheck
 231E:9152       _AISanitizeGroupCheck
 6058:8AA0       _AITREL
 6058:B136       _AITTGT
 6058:CEDA       _aiwaypoints
 6058:3142       _AIWingMan
 6058:314E       _AIWingMenu
 6058:3150       _AIWingMenuTime
 3D18:00CC       _All2AirHoming
 45D0:0036       _AllocGraphicPage
 6058:1D1A       _Alt
 6058:3DB8       _AnimCnt
 0133:08A2       _AnimIsRunning
 6058:CD50       _AnimVals
 6058:E90A       _AOARATE
 6058:1D2C       _AOARepCnt
 6058:AC16       _AOAttack
 484F:015A       _ARCSIN
 484F:005D       _ARCTAN
 0310:01EA       _ARMT_get_priority
 0310:0034       _ARMT_INIT
 0310:0344       _ARMT_jettison_all
 0310:0000       _ARMT_MODE
 0310:032E       _ARMT_release
 1B72:0CFA       _ase_circle
 6058:F352       _ASE_RADIUS
 484F:00D5       _ASinB
 6058:EDE0       _ASPECT_S
 6058:46FE       _atarg
 6058:455A       _AutoAlt
 6058:1E76       _AUTOCARLAND
 6058:46FA       _AutoGearOk
 6058:CEB6       _AutoHead
 6058:4706       _AutoLand
 6058:1FCC       _AutoTrim
 6058:14EC       _AvailCat
 45D0:003C       _AvailSysMem
 06EE:0F68       _AvoidLand
 231E:1086       _AvoidMountains
 0347:000A       _AwacsPicture
 0365:0004       _AWG9
 0365:0180       _AWG9_ACQ
 0365:07B4       _AWG9_CHANGE_MODE
 0365:10C2       _AWG9_DEC_RANGE
 0365:01D0       _AWG9_EL
 0365:04AC       _AWG9_IFF
 0365:10B0       _AWG9_INC_RANGE
 0365:0734       _AWG9_INIT
 0365:0D9E       _AWG9_LOCK
 6058:0D26       _AWG9_MODE
 0365:0190       _AWG9_MODE_BREAK
 0365:0FBC       _AWG9_POWERUP
 0365:3362       _AWG9_project
 6058:0D22       _AWG9_REALITY_LEVEL
 6058:DFEC       _AWG9_SNIFF
 6058:0D68       _AZSWEEP
 6058:8D84       _AZSWEEP_DIR
 6058:1650       _BackBotSpots
 6058:16A0       _BackLeftSpots
 6058:1982       _BackSeat
 0C13:1990       _BackSeatCoolyCmds
 6058:1588       _BackTopSpots
 6058:DF70       _BAD_GUY
 6058:1012       _BallCalled
 2D76:2530       _BaseBracket
 6058:AC24       _BEAM_HDG
 6058:E058       _BEAM_PIT
 6058:E0B0       _BEAM_ROL
 0347:00F6       _BearingToText
 6058:DCFE       _behavecommands
 6058:3DC2       _behindus
 6058:E948       _BelowDeck
 6058:EDD4       _BEND
 0113:0002       _Bgn3D
 3BFA:0004       _BigRioDot
 6058:EDE6       _BingoFuel
 6058:198C       _BingoFuelWarn
 6058:D8C2       _BitMaps
 6058:14F4       _BlastShield
 6058:2270       _BlueFlame
 6058:8A9E       _boatnum
 0133:00FC       _Boats3D
 6058:ED68       _bogusx
 6058:EDD8       _bogusy
 6058:EDE8       _bogusz
 231E:7FF0       _BOMB_TrackingAI
 231E:528E       _Box
 2D76:1E9E       _BracketLeft
 2D76:1EBE       _BracketRight
 6058:0D38       _BRANGES
 1B72:1398       _break_x
 6058:ECF8       _BSPBASE
 1B72:0D50       _bst_circle
 0365:2F1E       _BuildAcqList
 0DCD:0172       _BuildCockpitSprites
 0365:352C       _BuildFiringList
 48D1:00B3       _BuildMask
 48ED:1376       _BuildPolyList
 45D0:0058       _BuildSprite
 07EF:0B24       _BulletDist
 6058:E052       _Button
 6058:8DC2       _bv
 6058:D8A2       _BXBS
 6058:086C       _C
 6058:415C       _CanDoSpeech
 2D76:3F9E       _CAPAI
 2D76:3CFE       _CAPLeg1
 2D76:3DD8       _CAPLeg2
 2D76:38F4       _CAPTurn1
 2D76:3AD4       _CAPTurn2
 5419:0558       _carrier
 08DC:0B4C       _Carrier3D
 6058:076E       _CarrierAmerica
 6058:DC94       _CarrierAnimVals
 08DC:1612       _CarrierLanding
 6058:078A       _CarrierNimitz
 6058:07A6       _CarrierSaratoga
 6058:0ECE       _CarrierScale
 6058:0ED0       _CARRIERSCALEKLUDGE
 6058:CD94       _carrmoveok
 6058:14FC       _CatReady
 6058:100C       _CATVEL
 6058:7FF2       _CenterPosition
 1CDB:0650       _CenterPrint
 231E:58D6       _Champagne
 45D0:0070       _ChangeColor
 231E:9624       _ChangeGroupBehavior
 1699:08F4       _ChangeHUDColor
 1699:094E       _ChangeHUDFilter
 0365:0E0C       _ChangeModerateScan
 0365:0EEC       _ChangeSRCHMode
 6058:4536       _ChangeWayPoint
 45D0:016C       _ChangeWeather
 0365:106C       _CHANGE_AZIMUTH
 0365:1026       _CHANGE_NUM_BARS
 45D0:001E       _CharWidth
 17D9:1D7A       _CheckAAA
 02B0:0318       _CheckAAAHit
 231E:86A6       _CheckAIBombs
 231E:87B0       _CheckAIMissiles
 2D76:5244       _CheckAISix
 2D76:0ECC       _CheckAITarget
 231E:6C46       _CheckAnyEnemyLock
 0365:0C86       _CheckAZELChange
 3D18:1CBE       _CheckBlastArea
 06EE:0986       _CheckBoatGunFiring
 07EF:0BB2       _CheckBulletBetter
 2D76:3E20       _CheckCAP
 0365:36C2       _CheckDataLink
 231E:6B3A       _CheckDetection
 3373:10F6       _CheckE2C
 3373:426C       _CheckForMobileR5
 3D18:0BA0       _CheckGroundHit
 231E:2CCA       _CheckGunFiring
 19CC:04E0       _CheckHRMLimits
 19CC:0486       _CheckHrmRemap
 3373:0148       _CheckIfCanIntercept
 44CB:0F42       _CheckImHit
 3D18:06C4       _CheckIncomingWarning
 6058:2690       _CheckingHRMLimits
 3373:6F12       _CheckIsWayTarget
 403D:015C       _CheckLandingAndCrash
 0365:0D36       _CheckMode
 0C13:0200       _CheckMouseInput
 3373:4520       _CheckPlaneBlast
 3373:67B8       _CheckPlaneLand
 48ED:11EF       _CheckPointRot
 3D18:0D4E       _CheckProximityHit
 2D76:1EFA       _CheckRadarSet
 231E:2912       _CheckTailAspect
 0000:0000       _CheckTargetHit
 3373:57C4       _CheckTurnStuff
 2D76:0C0C       _CheckWingmanSix
 231E:3E2C       _ChooseBehavior
 6058:9DF2       _chs
 6058:AC12       _chuteDZ
 6058:D38E       _chuteX
 6058:D4DA       _chuteY
 6058:D89E       _chuteZ
 1A4B:006C       _circlepoints
 6058:0834       _Class
 6058:2640       _cldhndl
 45D0:001A       _ClearPage
 0365:0D10       _ClearTargetFile
 471E:0212       _CLIP16
 471E:033D       _CLIP32
 45E8:09A6       _CLIP3DNEW
 6058:7830       _CLIPPTR
 45D0:0074       _ClipSprite
 6058:3100       _CLIPZ
 45D0:016E       _clip_rotmap
 6058:E0B4       _CloseBase
 6058:8A9A       _CloseDist
 3373:3F66       _CloseEnoughFor
 6058:CEC6       _CloseGuy
 2D76:09BC       _CloseInFight
 6058:3DC4       _closeplane
 45D0:0044       _CloseSprite
 6058:8A86       _CLOSURE
 6058:F890       _CLOUDAMNT
 6058:AC3A       _CloudCeiling
 6058:2642       _CLOUDHEIGHT
 6058:263E       _CLOUDSEG
 6058:7834       _CLRSWAPPTR3D
 6058:E0B2       _ClrTarg
 0C13:0840       _Cmds
 6058:194E       _CockpitFiles
 4A72:0000       _CockpitLights
 481A:000A       _COLOSPECSETUP
 41A7:059C       _concentric
 0DCD:068C       _ConfigCrts
 6058:8AB2       _ConfigData
 41A7:0998       _convert_xy
 0133:08BE       _CoolF14MissileAnims
 6058:07C2       _CoolF14Objects
 6058:07D4       _CoolF14Tails
 6058:0896       _CoolObj
 6058:F350       _CoolyStick
 484F:0310       _Copy3X3
 231E:2E9E       _CoreCheckGunFiring
 484F:002D       _COSB
 6058:083E       _CosHead
 6058:0842       _CosPitch
 6058:0846       _CosRoll
 40D5:00F2       _cosX
 2D76:5EDE       _cosXL
 6058:1452       _Coursestr
 6058:D8B0       _CRASHED
 6058:1A2E       _CrtConfig
 6058:DA4E       _CrtDisplays
 6058:F34A       _CrtMask
 6058:1A1E       _CrtRps
 6058:9DDE       _CrtUpdate
 3373:4474       _CruiseDistruct
 6058:7AA2       _ctrl_b_flag
 6058:1A3E       _CurCRT
 0C13:06BA       _CursorInCrt
 6058:DF26       _CUR_BAR
 6058:D610       _D
 2D76:2BAA       _DamageAI
 6058:454A       _Damaged
 3D18:14E4       _DamageIt
 6058:E0BA       _DAMAGELITE
 3D18:138E       _DamageMe
 1B72:0A00       _dashline
 6058:0D64       _DataLink
 6058:0D62       _DataLinkCnt
 6058:B122       _DataLinkList
 5419:0258       _DawnPal
 5419:8B20       _DayPal
 6058:150E       _DBlaunch
 5419:2E56       _DDDMask
 0DCD:2344       _DDDSwitches
 0DCD:1DC8       _DDDSwitchRefresh
 1227:0388       _DDDTargetDraw
 1227:01A0       _DDDWeaponRanges
 1227:03E0       _DDD_horizon_line
 6058:8016       _DeadZone
 6058:1E72       _DEBG1
 6058:1E74       _DEBG2
 6058:1F9E       _DEBUG1
 6058:1FA0       _DEBUG2
 6058:1058       _debugstr
 6058:14AC       _Decentstr
 6058:1986       _DeClutter
 1751:0032       _Decompose
 6058:7842       _DEFAULTPAL
 0365:28F8       _DelTargetFile
 1352:137A       _Density
 1E6B:0168       _DeProject2D
 6058:8A78       _DESIGNATED
 231E:8106       _DESIGNATED_TrackingAI
 6058:D380       _DESIGNATED_X
 6058:D38A       _DESIGNATED_Y
 6058:47DC       _DesignateMode
 0365:2D66       _DesignateTIDTarg
 6058:0D60       _DesigTargCnt
 6058:E90C       _DESIG_TARG
 6058:8D8E       _DESIG_TARGF
 3ADD:00B4       _detect
 6058:46FC       _detected
 6058:EC62       _DETECTED_TARG
 0365:314E       _DetermineShootParams
 1B72:1588       _diamondbox
 6058:455C       _Diff
 6058:23EC       _DifficultyLevel
 6058:EDDA       _DigAllOff
 6058:8982       _DigFlushQueue
 6058:AC36       _DigQueue
 6058:D8A8       _DigShutDown
 6058:8D72       _DigStatus
 6058:E906       _DigSysSetup
 230F:0000       _dig_load_overlay
 6058:A0AA       _Direction
 6058:1F9A       _DirectLiftControl
 6058:1F9C       _DIRECTLIFTSPEED
 0DCD:3AD0       _DisplayBackLights
 08DC:1592       _DisplayBall
 1788:014E       _DisplayErrorMessages
 6058:2356       _DisplayFrame
 0DCD:0C18       _DisplayLeftStuff
 0DCD:3B86       _DisplayLights
 0DCD:0808       _DisplayMaster
 0DCD:1002       _DisplayRightStuff
 3B8C:000C       _DisplayRioHead
 0DCD:0B20       _DisplayTIDSwitches
 484F:018A       _Dist2D
 6058:0832       _Dist2Obj
 484F:01DC       _Dist3D
 4356:0438       _DistOf
 4356:03EC       _DistTo
 4356:0416       _DistToPlane
 471E:0203       _DLINE
 6058:8D78       _DMAX9
 6058:1EB4       _DNSTBL
 6058:1D62       _DNSTSQR
 0133:000E       _Do3DObject
 02B0:0006       _doaaa
 2D76:284E       _DoAICounters
 3373:4F80       _DoAltHover
 06EE:000E       _doboats
 2166:0A72       _DoBox
 07EF:0056       _docannon
 3373:3400       _DoCAPReplace
 403D:0574       _dochute
 0DCD:06B4       _DoCockpitDisplays
 0DCD:3BF4       _DoCRT
 1227:000C       _DoDDD
 403D:04CE       _dodecoys
 1352:158C       _DoFuel
 3373:6FC8       _DoGroupAction
 2D76:4F48       _DoHover
 6058:8A72       _DOINVISIBLE
 3373:65E4       _DoLandWait
 08DC:29F2       _DoLSO
 3373:2D32       _DoNextWayPt
 3373:70C0       _DoOClockCall
 44CB:0D18       _DoPadLockView
 6058:ED02       _DoPitchLines
 231E:0000       _doplanes
 08DC:2124       _DoPlayerOnTheCat
 08DC:2328       _DoPlayerOnTheHook
 1227:028A       _DopplerCheck
 3ADD:000C       _doradar
 3D18:0006       _dosams
 40F4:000C       _DoTac
 428C:0008       _DoTID
 48ED:0CED       _DotProduct
 07EF:01C6       _dotracers
 231E:7938       _DoVSeperation
 4A5B:0016       _DPTRGMUL
 45D0:0184       _Draw3dGroundObject
 45D0:0186       _Draw3dGroundObjects
 45E8:00CF       _Draw3DObject
 17D9:1E8E       _DrawAAA
 0DCD:15F4       _DrawAirSpeedGauge
 0DCD:2FE0       _DrawAltGauge
 0DCD:340A       _DrawAOADisplay
 3F3D:087E       _DrawASmoke
 203C:0682       _DrawASurf
 07EF:0A3C       _DrawBullets
 08DC:0EE2       _DrawCarrier
 0133:0666       _DrawChute
 1A4B:00EA       _drawcircle
 0DCD:2DD0       _DrawCompass
 0133:099A       _DrawCoolF14
 0133:06C4       _DrawDecoy
 45D0:0088       _DrawDot
 0DCD:36FC       _DrawEngineStat
 4251:0002       _DrawGunCameraView
 0DCD:16C4       _DrawIndexer
 2166:13F4       _DrawLandObjects
 45D0:005E       _DrawLine
 0133:0722       _DrawMissile
 203C:0BFC       _DrawN3dObject
 2166:151E       _DrawNLand
 45D0:0010       _DrawPoly
 6058:A0A8       _DRAWPTR
 0DCD:1490       _DrawRadarAlt
 0DCD:1850       _DrawRadarDials
 0DCD:13F8       _DrawRadarElev
 0DCD:1CD8       _DrawRadarRange
 0DCD:0846       _DrawRadarStatus
 0133:01C0       _DrawRegBoat
 3BFA:0396       _DrawRioMapInfo
 3BFA:0068       _DrawRioWayPoints
 2166:0006       _DrawSBox
 0133:0618       _DrawShadow
 0DCD:3164       _DrawStores
 203C:0D0E       _DrawSuper3DObject
 203C:0BA6       _DrawSurfs
 0DCD:3522       _DrawSweepDisplay
 0133:120E       _DrawTexPlane
 0DCD:2EBE       _DrawVVGauge
 0DCD:171E       _DrawWayPoint
 3F3D:05A4       _DrawXploSprite
 1227:06E8       _draw_circle
 1B72:1622       _draw_shoot_cue
 6058:8A98       _droll
 231E:833A       _DropAIBomb
 403D:02E8       _dropdecoy
 6058:4564       _ds
 45C3:0028       _DumpLogFile
 5419:832C       _DuskPal
 08DC:2826       _EasyLanding
 6058:8626       _edata
 6058:1A4C       _EgtL
 6058:1A4E       _EgtR
 6058:CD92       _ejected
 6058:DA4A       _ejectX
 6058:DF24       _ejectY
 6058:DF6E       _ejectZ
 5419:2128       _ElevMask
 47E3:00F8       _EMMMapMultiPage
 47E3:00AF       _EMMMAPPAGE
 47E3:0006       _EMMThere
 6058:008A       _EMS3DObjectSlot
 47FA:00CC       _EMSalloc
 47E3:0068       _EMSAllocatePages
 6058:7FE0       _EMSERR
 5419:3546       _emsfiles
 12B7:053E       _EMSFileUsage
 47FA:0075       _EMSFRAME
 47FA:011F       _EMSfree
 6058:1B8C       _EMSHANDLE
 47FA:01AF       _EMSHANDS
 47FA:01D8       _EMSHSIZE
 47FA:0028       _EMSinit
 47FA:00F6       _EMSmap
 47E3:003A       _EMSPageFrame
 47FA:009E       _EMSpages
 6058:1B8E       _EMSPagesFree
 6058:1B90       _EMSPagesGrabbed
 47E3:0051       _EMSPagesLeft
 5419:25D8       _emspageuse
 47FA:0004       _EMSPRSNT
 47FA:0204       _EMSREAD
 47E3:008B       _EMSReleasePages
 47FA:018C       _EMSREST
 47FA:0169       _EMSSAVE
 6058:7FDE       _EMSseg
 47FA:0055       _EMSSTAT
 47FA:0142       _EMSVER
 0000:0000  Abs  _end
 0113:0034       _End3D
 403D:0626       _EndGame
 17D9:0F9E       _EndStack3D
 6058:313E       _enemyfire
 6058:DA48       _ENEMYNODIE
 3373:4988       _EngageTrain
 0DCD:437E       _EngineAlreadyOn
 1352:13D6       _EngineBreathe
 0DCD:4380       _EngineMonitor
 00CC:043A       _Error
 2D76:2A42       _EvadeMissile
 45D0:0108       _exit
 6058:2352       _ExitCode
 6058:2354       _ExitErrorCode
 6058:2360       _F14CNUM
 6058:235C       _F14SCNUM
 6058:236A       _F14SNAME
 6058:2358       _F14SNUM
 6058:23A6       _F14SPER
 6058:23E2       _F14VNUM
 6058:0A9E       _F14_STATION
 45C3:0068       _farfread
 6058:2646       _FARSTACK
 6058:1F48       _FASTROLL
 6058:E8AA       _FBPTR
 45D0:0132       _fclose
 6058:8AA2       _Fencer
 6058:8A90       _File
 12B7:0438       _FileInEms
 45D0:00B4       _filelength
 471E:0114       _FILLPOLY
 48ED:0C99       _FILLSCREEN
 6058:7F98       _FILLTRANSTBL
 403D:00E2       _FindCloseBase
 3D18:1A08       _FindEmptyMissileSlot
 3D18:1A40       _FindEmptyMissileSlot2
 3D18:1AA4       _FindEmptyMissileSlotP
 07EF:0108       _firecannon
 1699:0846       _FireColors
 3D18:15E6       _firemissile
 3D18:175C       _firemissile2
 6058:8A8E       _Firing
 0365:3510       _FiringOrder
 6058:E04E       _FIRINGORDERCNT
 6058:8AE8       _FIRINGORDERLIST
 6058:B138       _firstbehaveshow
 2D76:5F7E       _FirstTargInGroup
 6058:ED0A       _FIRST_ENEMY_TRACE
 484C:0029       _FIXEGA
 48ED:0006       _FlagRotate3D
 1352:0138       _FLIGHT
 4790:0138       _FLINE
 0DCD:03C0       _Flip
 48D1:0147       _FlirCopy
 6058:84EA       _FlirTbl
 44CB:0E64       _FloatingHUD
 6058:E8AC       _FLSHXOFF
 6058:E946       _FLSHZOFF
 3373:171A       _FlyCruise
 45D0:0154       _FlyGroupine
 45D0:0150       _FlyGroupLine
 45D0:0158       _FlyLine
 231E:9428       _FlySanitize
 45D0:0156       _FlyStampLine
 2D76:1EDE       _FlyStraight
 45D0:0152       _FlyTileLine
 2D76:4148       _FlyTo
 2D76:4506       _FlyWayPoint
 3373:1BF2       _FlyWPFollowPlayer
 6058:1CBA       _FM
 48ED:0CB8       _fmemcpy
 48ED:0C63       _fmemfill
 3373:1CF2       _FollowPlayer
 45D0:0062       _FontHeight
 45D0:0094       _fopen
 2D76:171A       _Formation
 06EE:0D50       _FormationBoat
 06EE:0BE2       _FormationSpeedAdjustBoat
 2D76:0F8C       _FormationSpeedAdjustUS
 2D76:1B8A       _FormationUS
 3373:3FD6       _FormOnWP
 1A4B:0028       _fourpoints
 3D18:1C08       _FoxCall
 6058:E086       _FPARAMS
 6058:1D26       _FrameCnt
 6058:4560       _FrameRate
 6058:46F6       _FrameRate10
 45D0:0138       _fread
 00CC:040A       _FreeEMS
 231E:62AC       _FreeFighter
 6058:313C       _friendfire
 231E:3700       _FriendlyChooseBehavior
 3373:3C48       _FriendMatch
 3373:3C72       _FriendMatchType
 3373:3C22       _FriendStatus
 6058:1542       _FrontLeftSpots
 6058:157E       _FrontRightSpots
 0C13:1928       _FrontSeatCoolyCmds
 6058:1524       _FrontTopSpots
 45D0:009A       _fseek
 12B7:002E       _fstrcmp
 12B7:000C       _fstrcpy
 6058:46F8       _FTicks
 6058:454E       _Fuel
 6058:ECF0       _FuelFlow
 6058:2004       _fueltime
 45D0:00F2       _fwrite
 6058:C946       _gamelog
 6058:1D34       _GAMNT
 6058:7ACA       _GBCOLOR
 6058:7AC4       _GCOL
 6058:7AC0       _GCOLOR
 0DCD:0A00       _GDisplay
 6058:7AB2       _GDISPLAYPAGE
 4790:0010       _GDRAWDOT
 471E:01BB       _GDRAWLINE
 6058:8A88       _Gees
 6058:1F44       _GEFFECT
 44CB:0008       _GenDsp
 1352:1400       _Get1GTrim
 2D76:4F70       _GetAIBase
 231E:0962       _GetAltPitch
 2D76:0832       _GetBehaviorLeader
 08DC:0B2C       _GetCatHeading
 45D0:0104       _getch
 3373:02A6       _GetCloseAirBase
 3373:5738       _GetDAltSpeed
 231E:0A8A       _GetDestinationAngles
 231E:09A8       _GetDestinationXYZ
 12B7:01F0       _GetEmsMem
 231E:310A       _GetEnemyTarget
 3373:51BC       _GetGTRadarNum
 484F:04EE       _GetHPR
 3373:0A2A       _GetInterceptPlane
 1D43:0008       _GetJoyConfig
 0C13:009A       _GetJoystickInputs
 3373:1864       _GetLastPosition
 2D76:0844       _GetLeaderCore
 0000:0828       _GetMissilePtr
 12B7:047E       _GetNextEMSfile
 3373:4D5C       _GetNextLaunch
 45E8:0F20       _GETOBJBOX
 0000:0748       _GetPicType
 3373:6CC6       _GetPlaneLanding
 3373:4202       _GetPlaneOrgNum
 3373:2FD6       _GetPlanePointXYZ
 0000:07BC       _GetPlanePtr
 3373:3206       _GetPlayerHelp
 2166:1240       _GetQHeight
 3373:513E       _GetRadarGTNum
 0000:08CE       _GetRadarPtr
 45D0:0182       _GetRidOfKeyJoy
 45D0:006A       _GetRpPixel
 3373:378C       _GetSAR
 3373:38C8       _GetSARCover
 403D:062E       _GetSide
 2D76:2DDE       _GetSortInfo
 2D76:07F6       _GetSquadLeader
 231E:2BCE       _GetTargADP
 45D0:0054       _GETTIME
 3BFA:0216       _GetToken
 3373:2A70       _GetWayPointChanges
 3373:2ED0       _GetWayXYZ
 0365:00C0       _GetWeaponCount
 3373:6D64       _GetWhichElevator
 3373:1E68       _GetWhoCover
 231E:95E2       _GetWingName
 1B72:0C9E       _get_count
 6058:7AC8       _GFCOLOR
 6058:266C       _GFLSH
 6058:7AC6       _GFONT
 231E:8E2C       _GiveSanitizeMessage
 2D76:3068       _GiveSortInfo
 08DC:14C2       _GlideScopeCheck
 6058:CEBE       _GLowDroll
 6058:7AAE       _GMODE
 2D76:542A       _GorillaBomb
 3373:2028       _GorillaCover
 3ADD:0856       _gotcha
 6058:8AA8       _GREYBUF
 6058:263C       _GREYSEG
 6058:EC1A       _GrndAnimVals
 6058:2650       _GRNDDETAIL
 17D9:16A2       _GroundHeight
 6058:CED6       _GroundObjectNames
 6058:B13E       _GroundObjectScale
 6058:D9B2       _GROUPBUF
 6058:C942       _GROUPCOLORS
 5419:815A       _GROUPMAPCOLORS
 6058:7AC2       _GROW
 6058:7AD4       _GRPAGE
 6058:7ACC       _GRPAGE0
 6058:7ACE       _GRPAGE1
 6058:7AD0       _GRPAGE2
 6058:7AD2       _GRPAGE3
 4F19:0000       _GRTBLSEG
 6058:9AEE       _gt
 6058:1E86       _GTABLE
 6058:4700       _gtarg
 6058:8A8C       _Gtime
 4251:0392       _GunCameraZoom
 6058:47C8       _GunRp
 6058:47DA       _GunZoom
 1B72:12C2       _gun_reticle
 6058:7AB0       _GWORKPAGE
 6058:7AB8       _GXHI
 6058:7AB4       _GXLO
 6058:7ABC       _GXMID
 6058:7ABA       _GYHI
 6058:7AB6       _GYLO
 6058:7ABE       _GYMID
 3F3D:0CA6       _HandleSmoke
 6058:1CCC       _HC
 6058:E900       _HCent
 6058:2706       _HDGRp
 1B72:031E       _hdg_indicator
 1B72:01DC       _hdg_scale
 1A4B:0848       _headingscale
 3B8C:04FE       _HeadProject
 6058:3DBC       _head_proj_x
 6058:3DBE       _head_proj_y
 6058:3DC0       _head_proj_z
 6058:1008       _HeavAngle
 6058:100A       _HeaveDir
 6058:1006       _Heaving
 403D:05D0       _Help
 6058:DF22       _HighlightTarg
 6058:8002       _HighRange
 19CC:0002       _HiResMap
 6058:E902       _HitMe
 6058:0886       _HookDown
 0133:0E96       _HookDownAnim
 6058:0888       _HookRot
 1B72:04AE       _horiz_line
 6058:1004       _HorzHeave
 6058:268A       _HRMChanged
 19CC:03C2       _HrmLock
 19CC:0448       _HrmRemap
 6058:2688       _HRMscale
 6058:268C       _HRMTime
 19CC:0634       _HRM_kb_acquire
 6058:ED00       _HRM_RANGES
 1A4B:09E4       _HsdCrt
 5419:0000       _HsdMask
 6058:26BA       _hsdmode
 1B72:0000       _HUD
 6058:225E       _HUDFilterMode
 6058:D4DE       _HudMsg
 1B72:053E       _HUDPitchLine
 6058:A10E       _HudSprite1
 6058:B120       _HudSprite3
 6058:CD46       _HudSprite4
 6058:CEBA       _HudSprite5
 1B72:0B26       _HUD_aa
 1B72:001C       _HUD_master
 1B72:0B24       _HUD_nav
 1B72:0036       _HUD_standard
 1751:0306       _Iacos
 1751:027C       _Iasin
 6058:3DE2       _iconmode
 4A5B:0057       _Icos
 6058:30D4       _IdentInvMat
 6058:75B4       _identitymat
 6058:A108       _IFF_timer
 08DC:1B70       _ils
 6058:8A92       _ImHit
 3373:7346       _Immelmann
 231E:A518       _ImNotaFighter
 0365:2F9E       _InAcqList
 0365:217C       _InBeam
 08DC:1348       _InBox
 08DC:1376       _InBoxLng
 3373:5238       _IndirectWPCorrection
 6058:8D60       _IneffectiveHit
 0365:3602       _InFiringList
 6058:ED64       _InFriendly
 0133:0808       _Init3DMissiles
 0298:0104       _Init3DPal
 0000:0988       _Init3DPlanes
 1788:011A       _InitAbort
 231E:85CA       _InitAddedWingmen
 07EF:0004       _InitCannonRate
 08DC:0008       _InitCarrier
 08DC:08AC       _InitCarrierObjects
 1788:02F4       _InitDamnPalettes
 1352:0008       _InitFlightModel
 1699:0008       _InitFlir
 4790:0008       _InitGraph
 1788:04C2       _InitGraphicPages
 481A:007C       _InitJoy2
 45C3:0004       _InitLogFile
 0365:0112       _InitMode
 230D:0008       _InitOptions
 0133:11C6       _InitOurCoolPlane
 45D0:0034       _InitOverlay
 08DC:09C0       _InitPlaneOnCarrier
 481A:00A4       _INITS
 1352:126A       _InitScottFlight
 3F0F:0002       _InitSound
 1699:0988       _InitSpecialPal
 3F0F:0104       _InitSpeech
 403D:0000       _InitStealth
 0365:0066       _InitTWSData
 1788:014C       _InitWeather
 6058:483E       _inity
 45D0:00EC       _inp
 17D9:153A       _InPoly
 6058:0D6C       _InRangeFlash
 1F87:0702       _InSideMSGBox
 4834:0008       _InstallKeyJoy
 1751:01FE       _IntDiv
 3373:000A       _InterceptControl
 46EF:0136       _InvertMatrix
 6058:4192       _InXPLO
 06EE:06A4       _IsBoat
 3373:3BD2       _IsBombing
 231E:3636       _IsCAPFlier
 07EF:0E6C       _IsDeckPlane
 4A5B:0063       _Isin
 2166:1384       _IsLand
 45D0:0162       _isprint
 231E:36FA       _IsRefueling
 45D0:00CE       _itoa
 6058:479E       _JAMMER
 6058:479C       _JAMMER_ACTIVE
 6058:1A42       _JetisonSW
 0DCD:4382       _JetisonSwitch
 403D:0616       _JettisonFuel
 2D76:13C4       _Jink
 2D76:2074       _Jink2
 481A:014F       _JOYCONVERT
 481A:00E3       _JOYREAD
 1CDB:000E       _JoyRecal
 6058:EC5C       _Joystick
 6058:7FE2       _JoyVals
 6058:0E50       _junktime
 3373:49B4       _JustPutHere
 45D0:0116       _kbhit
 0C13:1B62       _KBInit
 6058:150C       _KbSense
 231E:3ABE       _KeepBehavior
 08DC:181C       _KeepPlaneOnCarrier
 6058:801C       _KeyJoyX
 6058:801D       _KeyJoyY
 6058:D8BE       _KEYPRINT
 6058:AC3E       _KEYPRINT2
 6058:A0B0       _KnockItOffStatus
 6058:A098       _Knots
 45D0:014E       _labs
 231E:4CEC       _Ladder
 231E:6538       _Ladder2
 231E:6840       _LadderCircle
 231E:1E0A       _Landing
 6058:AC0C       _LandingAngle
 6058:AC18       _landingstatus
 6058:A0FC       _LandingVel
 6058:3104       _LandObjectBase
 6058:10D2       _LandPat
 6058:10D0       _landpt
 2D76:5824       _Langle
 6058:CEC8       _lastadded
 6058:0CCA       _LastCall
 6058:3138       _lastcatused
 6058:ECFE       _lastCounter
 6058:14D4       _lastlso
 6058:AC26       _LastMisl
 6058:301A       _LastMsgSeat
 6058:3018       _lastmsgview
 6058:ECF4       _LastMud
 6058:A0F6       _LASTOBJ
 6058:8AA4       _lastOClock
 6058:8A76       _LASTPLANE
 6058:8B48       _LastRate
 6058:CD96       _LastSlotNMount
 6058:9AEC       _LastSpike
 6058:2644       _LASTSTACK
 0BF8:01B8       _LaunchAircraft
 3D18:1C8E       _LaunchCall
 3373:12AC       _LaunchCruise
 2D76:5D08       _LDist2D
 0365:1A02       _LDist3D
 484F:05D6       _LDIV
 484F:0618       _LDIVI
 6058:1966       _Lengths
 3373:6AFA       _LetNextPlaneLand
 3373:5446       _LetWingmenContinue
 6058:30FE       _LEV
 2D76:5A4E       _LFlyTo
 6058:9F04       _lfpx
 6058:A09E       _lfpy
 2D76:58C6       _LGetTargADP
 45D0:004E       _LibCanDo
 6058:1A44       _Lightemup
 6058:1A46       _lighton
 6058:0880       _LIGHTS
 6058:2258       _LightsOn
 6058:7836       _LIGHTX
 6058:7838       _LIGHTY
 6058:783A       _LIGHTZ
 4790:0019       _LINE
 6058:599A       _LINEBUF
 6058:7AD6       _LINEST
 6058:1988       _LLowFuelWarn
 484F:060D       _LMUL
 0000:0006       _Load3DPlaneInfo
 00CC:0122       _LoadBigEMSFile
 17D9:02A6       _LoadClouds
 1788:0360       _LoadConfig
 6058:1E6E       _LOADDRAG
 00CC:0004       _LoadEMSDataFile
 12B7:06AA       _LoadEmsFile
 203C:0D88       _LoadEMSObject
 00CC:02A6       _LoadEMSPicFile
 1788:01D4       _LoadFiles
 12B7:01A8       _LoadGroundObjects
 17D9:000C       _LoadHorz
 0DCD:0006       _LoadNewCockpit
 00CC:0108       _LoadObjFile
 6058:1E42       _loadout
 6058:1E70       _loadoutweight
 45D0:002E       _LoadOverlay
 45D0:007E       _LoadPalNoPic
 45D0:0086       _LoadPalToPal
 45D0:0082       _LoadPicGmem
 45D0:0012       _LoadPicNoPal
 45D0:0014       _LoadPicToPal
 45D0:0048       _LoadPicture
 1D58:000C       _LoadScottMission
 1788:03D8       _LoadSoundConfig
 0000:0A16       _LoadSpecialObjects
 3F3D:000A       _LoadSprites
 6058:1E5E       _loadstrs
 12B7:00B8       _LoadTheWorld
 0310:0046       _load_aa_stations
 0C13:156E       _LocalCmds
 3373:0C20       _LocationPicture
 45D0:015A       _LockAG
 0365:1644       _LockDistanceCheck
 6058:8A94       _LOCKED
 6058:0D46       _LOCKSHOOT
 6058:F894       _lodetailcqr
 403D:0662       _LogIt
 48ED:0B87       _LONGDIV
 45D0:00CC       _longjmp
 0DCD:0310       _LookDown
 5419:8E20       _LookDownLMask
 5419:C32C       _LookDownRMask
 0DCD:0368       _LookUp
 231E:7A10       _LowBombTarget
 6058:7FFA       _LowRange
 6058:DA36       _lox
 6058:DA42       _loy
 6058:8D7A       _LP
 2122:000E       _LPoly
 4356:01C4       _lproject
 6058:1890       _ls
 6058:14D6       _lsomsgptrs
 6058:1014       _LSOMSGTIME
 6058:1E80       _LSORating
 45D0:00DA       _ltoa
 1788:0002       _main
 1788:0412       _MainGameLoop
 1E8C:000C       _MainMenu
 2166:063A       _MakeBoxes
 2166:07AE       _MakeBoxVis
 48ED:1357       _MakeBspDrawList
 12B7:04B8       _MakeEMSFileBlock
 0DCD:3D94       _MakeItGreen
 484F:03C0       _MakeMatHPR
 484F:0626       _MakeMatRPH
 2166:0432       _MakeMidGridPt
 2166:04E4       _MakePTS
 46EF:0000       _MakeRotationMatrix
 17D9:135C       _Map3d
 5019:0000       _MAPBUF
 5419:0628       _MAPCOLORS
 12B7:034E       _MapEmsFile
 203C:0002       _MapEMSObject
 203C:0056       _MapEMSObjectTexture
 00CC:0234       _MapIn3dObjects
 12B7:0400       _MapInBank
 00CC:036C       _MapInEMSSprite
 1E6B:00C0       _MapLoc
 6058:1506       _mapmode
 6058:268E       _MapRangeBad
 6058:2A42       _Mapx
 6058:2A44       _Mapy
 48D1:0010       _MaskCopy
 48D1:0020       _MASKCOPYSKEW
 6058:1A40       _MasterArmSW
 0DCD:4468       _MasterArmSwitch
 6058:197E       _MASTER_CAUTION
 46EF:0155       _MatMul
 1751:0004       _MatrixMul
 6058:1ED6       _MAXENGAIR
 6058:2052       _MaxFuelTBL
 6058:2026       _MaxFuelTBLperhour
 6058:3108       _MAXLEV
 6058:0D28       _MAXRNG
 6058:7FEA       _MaxStick
 1F87:0632       _MBox
 48C6:0006       _MCGAColors
 2017:0222       _mclear_screen
 484F:05C8       _MDiv
 6058:8980       _MeatBall
 6058:0A16       _MedAnimVals
 45D0:00FE       _memcpy
 1E8C:03F2       _menu
 6058:AC04       _MenuSpr1
 6058:AC14       _MenuSpr2
 6058:AC20       _MenuSpr3
 1F87:001A       _Message
 1F87:0006       _Messages
 6058:CEC0       _MikeHeight
 6058:1EEC       _MILENGAIR
 6058:2042       _MilFuelTBL
 6058:2006       _MilFuelTBLperhour
 6058:D386       _MinAlt
 6058:E942       _MinKnots
 6058:0D2A       _MINRNG
 6058:8D86       _MinSpd
 6058:7FE2       _MinStick
 6058:8A1E       _minTimeAloft
 6058:080E       _MiscSpecial
 0000:04F0       _MissileAdd
 6058:9DBE       _MissileAnimVals
 6058:4540       _MissileDataList
 6058:4548       _MissileDataListCnt
 6058:0080       _MissileDataSize
 6058:8A1C       _MissileListSeg
 6058:0086       _missilerecsize
 6058:0800       _Missiles
 3D18:1BCE       _MissilesInAir
 41A7:0228       _MissileThreats
 6058:E05C       _MISSILETRAIL
 1B72:0B6E       _missile_cnt
 6058:ED08       _MissionWeather
 6058:D9B4       _MLAUNCH
 6058:7AD6       _MODEBLOCK
 6058:0D6A       _ModerateMode
 6058:0A9C       _MODE_AA
 6058:0A98       _MODE_MASTER
 6058:0A9A       _MODE_NAV
 2017:0080       _mono_out
 2017:002C       _mono_scroll
 6058:1512       _MouseCrtX
 6058:1514       _MouseCrtY
 6058:1516       _MouseDsp
 45D0:001C       _MouseHIDE
 45D0:004A       _MouseHITS
 45D0:007A       _MouseOFF
 45D0:000C       _MouseON
 1E8C:09A2       _MouseSETUP
 45D0:0084       _MouseSHOW
 6058:DFEA       _MouseSprite
 45D0:0068       _MouseTYPE
 6058:ED5E       _MouseX
 6058:EDD0       _MouseY
 08DC:2DDE       _MoveAIToCat
 3373:63BA       _MoveAIToElevator
 45D0:00B2       _movedata
 3373:43D4       _MovePlane
 1E6B:0036       _mplot
 2017:0000       _mprintf
 6058:3016       _MRp
 6058:A0C2       _ms
 6058:AC10       _mS1n
 6058:AC1A       _mS2n
 6058:2A40       _Mscale
 2017:0200       _mset_pos
 1F87:007E       _MsgBox
 6058:9AE2       _MsgCount
 6058:D8B8       _MSGDETAIL
 6058:309C       _MsgEMS
 6058:2FF6       _MsgOnScreen
 1F87:06C8       _MsgPrnt
 6058:3004       _MSGRp
 6058:CECC       _MsgSrc
 6058:3098       _msgtime
 6058:1A4A       _msiz
 6058:264E       _MTNDETAIL
 6058:2658       _MTNRAD
 4A5B:0025       _MUL256DIV
 484F:058D       _MulDiv
 48ED:0B70       _MulDiv32
 484F:032A       _Mult1X3
 484F:0282       _Mult3X3
 6058:309A       _Mupdate
 6058:20CE       _MYCLCD
 6058:20D0       _MYCP
 6058:1E6C       _MYLOAD
 1F87:0478       _MyMessage
 1F87:013C       _MyMessages
 6058:8B56       _MyMouseHits
 6058:301E       _MyMSG
 6058:3096       _MyMSGTYP
 6058:20D2       _MYTFACT
 48ED:1463       _MYWATERLINE
 48ED:15B5       _MYWATERLINE2
 6058:2668       _MYWID
 6058:3148       _MyWingy
 48ED:1021       _NCLOUDFILLLINE2
 48ED:0E36       _NCloudLine
 48ED:0EB8       _NCloudLine2
 48ED:0F48       _NCloudLine3
 48ED:1193       _NDDot
 6058:4562       _NDECOY
 48ED:104D       _NDLine
 2122:0400       _NDot3D
 0298:000A       _NDraw3D
 203C:0CAE       _NDraw3DObject
 231E:88BA       _NearWingTarget
 6058:1B8A       _NEMSSEG
 6058:8AD0       _NERADAR
 12B7:006E       _NewEmsFunction
 44CB:0C3A       _NewLockView
 44CB:0BD2       _NewMissileView
 6058:301C       _newmsg
 44CB:0C20       _NewTacView
 6058:4708       _nextlog
 6058:3DE0       _NextRioTime
 6058:4534       _NextWayPoint
 6058:A0AE       _NGTARGETS
 6058:8074       _NGXHI
 6058:8074       _NGXHI32
 6058:806C       _NGXLO
 6058:806C       _NGXLO32
 6058:807C       _NGXMID
 6058:8078       _NGYHI
 6058:8078       _NGYHI32
 6058:8070       _NGYLO
 6058:8070       _NGYLO32
 6058:807E       _NGYMID
 17D9:02C0       _NHorz
 6058:455E       _Night
 6058:12CA       _NiteLandPat
 5419:2B56       _NitePal
 2122:0312       _Nline3D
 0C13:1B3C       _NoAccel
 6058:781C       _NOASPECT
 6058:1B92       _NOTEXTURE
 6058:EC5E       _NPDEST
 48ED:0552       _NPFFill
 48ED:01D4       _NPFLine
 6058:E05A       _NPLANES
 2122:008A       _Npoly3D
 6058:D4D8       _NRADAR
 48ED:0D2E       _NScaleLine
 48ED:0DAF       _NScaleLine2
 1699:033A       _NSetGreyPal
 48ED:0B9C       _NSetViewMat
 0347:0180       _NSpeech
 6058:ECF6       _NTARGET
 6058:DCF4       _ntmp
 6058:A0A2       _NTRACE
 6058:CEBC       _NTRACE2
 6058:81E6       _NTRANSGREYPTRS
 4A90:0000       _NULLCOLORS
 6058:0D66       _NumBars
 6058:8088       _Nviewmat
 48ED:0FF7       _NXSADDLine
 48ED:0FBC       _NXSLine
 6058:085A       _O
 6058:E8B6       _OB
 6058:8DC0       _OBJ
 6058:D8D2       _OBJDISTS
 6058:0822       _Object
 6058:2652       _OBJECTDETAIL
 5419:5D5A       _OBJECTS
 6058:A0B6       _ObjHands
 5419:0728       _objhndls
 6058:DFAA       _OBJSCALES
 6058:2648       _OBJSEG
 6058:AC28       _ObjSegs
 6058:1D1E       _OldAlt
 6058:D388       _oldAltval
 6058:1F4C       _OLDAOA
 6058:1F4A       _OldAutoAlt
 6058:4702       _OldClose
 6058:9DF0       _olddog
 6058:E93C       _oldFPX
 6058:ED60       _oldFPZ
 6058:2262       _OldG
 6058:0820       _OldHandle
 6058:2264       _OldOvercast
 6058:1F4E       _OLDSLEW
 08DC:13CC       _OnCarrier
 6058:1E78       _ONTHECAT
 08DC:1D22       _OnTheDeck
 6058:1E7A       _ONTHEHOOK
 45D0:0016       _OpenSprite
 6058:2288       _OrangeFlame
 6058:0AB8       _ORDNANCE
 6058:8AB0       _orgPlayernum
 0365:20D2       _orient_to_player
 6058:314A       _OtherAIDo
 6058:314C       _OtherAITime
 3F0F:00BC       _OtherJetSound
 6058:1D1C       _OurAlt
 6058:8AD2       _OurCallSign
 6058:1D14       _OurHead
 6058:0AB6       _OurLoadOut
 6058:A0B2       _OurPath
 6058:1D16       _OurPitch
 6058:1D18       _OurRoll
 6058:CEA2       _OurWingName
 6058:781E       _OUTLINE
 1F87:0772       _OutSideHeading
 6058:1990       _OutsideLength
 1F87:073A       _OutSideMSGBox
 6058:198E       _OutsideWidth
 2D76:399A       _OvalTurn1
 2D76:3BC2       _OvalTurn2
 6058:2654       _OVERCAST
 6058:225A       _OverG
 45D0:0174       _OverlaySequencePoints
 6058:0824       _OX
 6058:0826       _OY
 6058:0828       _OZ
 6058:4976       _PadHead
 6058:497A       _PadLockee
 6058:4978       _PadPitch
 5419:8820       _Palette
 6058:225C       _PaletteChanged
 6058:7832       _PalPtr3D
 6058:1984       _Panning
 6058:7840       _PARALLEL
 6058:EDFA       _paratroopers
 6058:1508       _PauseHit
 0C13:1AE8       _PauseMode
 6058:1CDE       _PC
 6058:F892       _pdest
 6058:8AE6       _PDT_ALT_100
 6058:D4D4       _PDT_ALT_1000
 1B72:0F3C       _PDT_closure
 6058:EDDE       _PDT_PROJ
 6058:DF1C       _PDT_PROJ_X
 6058:DF6C       _PDT_PROJ_Y
 1B72:10E2       _PDT_range
 6058:F34E       _PDT_RNG
 48ED:006D       _Perspect3D
 4790:001D       _PFILL
 6058:088E       _pflashtbl
 6058:8A70       _PitchAngle
 1A4B:0182       _pitchbar
 1A4B:0360       _pitchbar2
 1A4B:0238       _pitchnum
 1A4B:0708       _pitchnum2
 1B72:0390       _pitch_ladder
 1B72:07FC       _pitch_line
 6058:3106       _PLAINVAL
 6058:DF2A       _PlaneAnimVals
 6058:B118       _planecnt
 6058:4538       _PlaneDataList
 6058:4544       _PlaneDataListCnt
 6058:007E       _PlaneDataSize
 6058:0882       _PLANEDETAIL
 1352:11C0       _PlaneDrag
 6058:DF28       _planelanding
 0BF8:0150       _PlaneLaunched
 6058:A0A6       _PlaneListSeg
 6058:0084       _planerecsize
 0133:0226       _Planes3D
 6058:0ED2       _PlaneScale
 0000:02E2       _PlaneSeek
 6058:264A       _PLANESEG
 6058:3140       _PlanesLaunched
 41A7:0124       _PlaneThreats
 1352:121A       _PlaneWeight
 6058:D8A6       _PlayerCat
 471E:0048       _PLINE
 6058:271A       _PLRp
 6058:EDBA       _PLYR_M
 6058:30FA       _POINTBUF
 5419:93AC       _POINTS
 6058:8A96       _PoliticallyCorrectNumlock
 471E:000C       _POLYLINE
 2D76:2426       _PostHole
 6058:8D8A       _PovMisl
 6058:8A74       _PovPitch
 6058:DA00       _Povx
 6058:DA3E       _Povy
 6058:DA4C       _Povz
 0BF8:0122       _PreparePlane
 6058:0ED8       _PreparePlaneWings
 6058:1F46       _PRESSUREBLACK
 6058:1D2B       _PrevAOA
 6058:1D2A       _PrevRoll
 6058:1D2D       _PrevROLLRATE
 6058:DA04       _PREV_DESIG_TARGF
 45D0:00F8       _printf
 231E:743C       _ProcessAICommMenu
 231E:6F5C       _ProcessAICommunications
 0C13:18D2       _ProcessCoolyCmds
 0C13:07B0       _ProcessInputs
 3373:3304       _ProcessOtherComm
 4356:000C       _project
 1E6B:010A       _Project2D
 6058:A0FE       _proj_x
 6058:AC0E       _proj_y
 6058:AC46       _proj_z
 6058:A110       _ps
 1E8C:0C54       _pstrlen
 6058:DF1E       _PTBS
 6058:A0F8       _ptype
 0C13:1B8E       _PutNumLockBack
 6058:CEC2       _PW
 6058:D384       _Px
 6058:B132       _PxLng
 6058:D4D6       _Py
 6058:CD48       _PyLng
 6058:46F2       _QTime
 6058:46F4       _QTimer
 0000:0324       _RadarAdd
 6058:1D20       _RadarAlt
 6058:8A80       _RadarCursorSprite
 6058:453C       _RadarDataList
 6058:4546       _RadarDataListCnt
 6058:0082       _RadarDataSize
 6058:8A8A       _RadarListSeg
 6058:1A50       _RadarRange
 6058:0088       _radarrecsize
 6058:1980       _RadarRepeat
 41A7:0044       _RadarThreats
 45D0:00A0       _rand
 6058:0D44       _RANGE
 6058:0D2C       _RANGES
 6058:148E       _Rangestr
 1B72:0D7C       _range_bar
 6058:800A       _RawJoy
 5419:81BA       _RawMask
 6058:272E       _RBRp
 6058:1CF0       _RC
 6058:9F08       _Rdrs
 12B7:0570       _ReadEMSPCX
 12B7:058A       _ReadEMSPCXSize
 481A:00B9       _ReadJoy2
 12B7:07E6       _ReadPCX
 12B7:0806       _ReadPCXSize
 3373:314A       _Ready5
 0BF8:0136       _ReadyLaunch
 6058:1D30       _REALFLIGHT
 6058:D390       _RealLandings
 3373:22C4       _RearCover
 3373:761A       _ReArmWingman
 45D0:0060       _RectCopy
 45D0:0040       _RectFill
 19CC:03BA       _RefreshHRM
 203C:059C       _Reject
 6058:2622       _REJECTDIST
 0000:0974       _Release3DMemory
 4834:0053       _RemoveKeyJoy
 6058:1C38       _ReqdGees
 0BF8:000E       _RequestCat
 0365:1F60       _ResetBar
 0DCD:3DBC       _ResetCockpitLights
 0365:1F20       _ResetTargetTrack
 4788:004B       _reset_ctrl_b
 0365:322E       _ResizeASE
 12B7:02C0       _ResizeEmsMem
 3373:3A56       _RestoreCover
 3F03:009E       _restore_video_state
 3373:316C       _ReturnBaseInfo
 231E:206E       _ReturnToBase
 6058:3D40       _RioAnim
 6058:3ACA       _RioHead
 6058:3C52       _RioLeftArm
 6058:3B9C       _RioLeftShould
 0365:294E       _RioLockCheck
 3BFA:0B8C       _RioMap
 6058:3CA6       _RioRightShould
 3BFA:113E       _RioTop
 6058:0D24       _RIO_ASSIST
 6058:198A       _RLowFuelWarn
 40D5:017E       _rnd
 40D5:01A0       _rnd2
 40D5:000E       _rng
 40D5:0038       _rng2
 6058:1F96       _ROLLINERTIA
 6058:D8B6       _ROLLRATE
 6058:1D2E       _RollRepCnt
 484F:0215       _Rotate
 1E6B:01CA       _Rotate2D
 45D0:017A       _rotate_pt
 17D9:19C6       _RotatingMap
 45E8:0FC9       _ROTSTANDARD
 6058:4558       _Rounds
 4356:038E       _row3
 6058:A0B4       _Rp
 6058:3A78       _Rp1
 6058:3A8C       _Rp2
 6058:3AA0       _Rp3
 6058:3AC8       _Rp3D
 6058:AC40       _RpCRT
 6058:19A4       _RpCRT1
 6058:19B8       _RpCRT2
 6058:19CC       _RpCRT3
 6058:19E0       _RpCRT4
 6058:19F4       _RpCRT5
 6058:1A08       _RpCRT6
 6058:1A1C       _RpCRT7
 6058:1992       _RpCX1
 6058:19A6       _RpCX2
 6058:19BA       _RpCX3
 6058:19CE       _RpCX4
 6058:19E2       _RpCX5
 6058:19F6       _RpCX6
 6058:1A0A       _RpCX7
 6058:3AB4       _RpHud
 6058:3AA2       _RpHudX
 6058:28DC       _RpJoy
 6058:28CA       _RpJoyX
 6058:DA5E       _RPov
 45D0:0024       _RpPrint
 6058:3A66       _RpX1
 6058:3A7A       _RpX2
 6058:3A8E       _RpX3
 6058:3AB6       _RpX3D
 3ADD:062A       _Rsignal
 3ADD:0906       _RsignalOne
 6058:46F0       _Rtime
 6058:A0C0       _RudderStick
 6058:1522       _RUDDERVALS
 6058:E8AE       _S
 45D0:0176       _S2MapLine
 0BF8:014E       _SaluteCatOfficer
 3373:35CE       _SAR
 3373:29B8       _SARCAP0
 3373:25E8       _SARCAP1
 3373:274C       _SARCAP2
 3373:2882       _SARCAP3
 3373:3598       _SARWait
 1D43:00B2       _SaveJoyConfig
 3F03:0000       _save_video_state
 6058:30F8       _Scale3d
 1A4B:034E       _scaler
 3F3D:019A       _ScaleRotate
 1A4B:0006       _scaley
 1352:166C       _ScottFlight
 6058:1E7C       _ScottFlightMode
 6058:1E7E       _ScottLandingMode
 6058:8B52       _Screen
 6058:CE9E       _ScreenAddr
 45D0:0092       _ScreenOff
 45D0:0046       _ScreenOn
 231E:20EC       _search
 0365:1CD6       _SearchForTargets
 6058:082A       _SecondMatrix
 40D5:014A       _seedme
 40D5:0168       _seedme2
 6058:7A42       _Seg3D
 0365:2E58       _SelectDesig
 6058:2256       _SelectedPal
 6058:DC90       _SelectedTarg
 6058:0D20       _SELECTED_AZ
 6058:0D1E       _SELECTED_BAR_NUM
 4790:0015       _SETCOLOR
 08DC:27E4       _SetDLC
 0113:00FE       _SetDrawWindow
 08DC:2780       _SetGear
 45D0:000A       _SetGraphicPage
 19CC:0330       _SetHiResMap
 08DC:27F0       _SetHook
 45D0:00C6       _setjmp
 45D0:0168       _SetJoysticks
 203C:00A8       _SetMatsPtrsOrder
 484C:0006       _SetOvrlyRp
 08DC:2024       _SetPosOnCat
 2D76:3286       _SetUpCAP1
 2D76:359E       _SetUpCAP2
 2D76:37A2       _SetUpCAP3
 3373:4B0E       _SetUpLaunch
 0365:1FBE       _SetupNewTarget
 2D76:346E       _SetUpOval1
 2D76:36C6       _SetUpOval2
 2D76:37E2       _SetUpOval3
 44CB:016A       _SetupView
 2D76:000E       _SetUpWingman
 45E8:0008       _SETVIEWMAT
 0113:01F6       _SetViewPos
 0113:01A8       _SetViewRot
 4790:0035       _SETWORKPAGE
 4788:000A       _set_ctrl_b
 40D5:012A       _sgn
 6058:CD9C       _SHADOWCOLORS
 45D0:0080       _Shake
 0133:019C       _Shift3X3
 6058:8D70       _SHOOT
 231E:6E00       _ShowAIStatus
 231E:6CAE       _ShowAIWeaponStatus
 0DCD:4100       _ShowFuel
 2D76:4C0A       _ShowJettison
 231E:6F00       _ShowMenuStuff
 6058:1518       _ShowMouse
 3373:54EE       _ShowOurWPS
 45D0:0042       _ShowPage
 3F3D:0C2C       _ShowSmokesNoChange
 45D0:0090       _ShowSprite
 1227:02FA       _ShowTargets
 1227:00A0       _show_az_carat
 41A7:095A       _show_jamming
 41A7:075A       _show_missiles
 41A7:089E       _show_plane
 41A7:07D4       _show_radar
 41A7:070E       _show_range
 1227:04B2       _show_rmin_rmax
 6058:ED5C       _sightX
 6058:EDCE       _sightY
 484F:0000       _SINB
 6058:083C       _SinHead
 6058:0840       _SinPitch
 6058:0844       _SinRoll
 40D5:00D6       _sinX
 2D76:5E3E       _sinXL
 6058:2656       _SKYDETAIL
 6058:1F50       _SLEW
 2D76:4EDC       _SlewOurWingmen
 08DC:2638       _SlopeCheck
 6058:1470       _Slopestr
 6058:088A       _slposx
 6058:088C       _slposy
 45D0:017C       _SMapLine
 6058:DD00       _SMOKES
 6058:EDEA       _SndData
 6058:D4D2       _SNDDETAIL
 6058:415A       _SndPriority
 45D0:008E       _SndShutdown
 45D0:008A       _SndSounds
 45D0:002A       _SndSysSetup
 41A7:0312       _SortThreats
 6058:313A       _sotnum
 3F0F:00D2       _Sound
 6058:415E       _SoundFile
 6058:A104       _Source
 0365:2A42       _SpecialModeAcq
 3F0F:01D0       _Speech
 6058:416A       _SpeechDriver
 6058:4704       _Speedy
 1352:31C0       _Splatted
 3373:7430       _SplitS
 6058:D9B8       _spotflags
 45D0:00C0       _sprintf
 6058:4196       _SPRTVLS
 1751:031A       _Sqrt
 45D0:00AA       _srand
 6058:AC48       _ss
 5419:0B28       _STACK3D
 17D9:11D6       _Stack3DObject
 6058:E056       _STAMPBUF
 6058:D60A       _STAMPCOLORS
 6058:DFEE       _STAMPLIGHTS
 0365:1370       _StandardReset
 0365:2AFE       _StandardSpecialModeAcq
 3F3D:0610       _StartASmoke
 6058:454C       _Status
 6058:151E       _SteadyHead
 6058:1520       _SteadyPitch
 403D:0060       _Stealth
 3D18:06E4       _SteerAndMoveMissile
 1B72:148A       _steering_dot
 1A4B:11DA       _SteerRange
 6058:CE9C       _STEER_DOT
 6058:EDCC       _STEER_DOT_X
 6058:EDD2       _STEER_DOT_Y
 6058:ED04       _StickType
 6058:265A       _STKWID
 6058:4550       _Stores
 6058:0ED4       _StormLevel
 231E:4652       _StraightAttack
 45D0:0120       _strcat
 45D0:0126       _strcmp
 45D0:00AC       _strcpy
 45D0:0110       _strlen
 45D0:00BA       _strncpy
 45D0:015C       _strupr
 6058:1F02       _STTBL
 484F:0752       _SUMOFSQUARES
 17D9:15C0       _SurfHt
 6058:D4DC       _sx
 6058:D8AE       _sy
 5419:29DA       _SYMBOLS
 6058:D9B6       _sz
 40F4:05DA       _TacBox
 40F4:0A8C       _TacMap
 40F4:081A       _TacScaleRotate256
 4A64:007C       _TacTransScaleLine
 6058:4768       _tacx
 40F4:067A       _Tacxy
 6058:476A       _tacy
 6058:476C       _tacz
 0C13:000E       _TakeInputs
 231E:0B44       _TakingOff
 6058:8D76       _TargetObj
 6058:3724       _targetplayer
 0365:139C       _TargetTrack
 6058:8D88       _TARGFILE
 6058:EE9A       _TARGFILE0
 6058:B11E       _TARGFILE0CNT
 6058:F354       _TARGFILE1
 6058:B13C       _TARGFILE1CNT
 6058:DC92       _TARGFILECNT
 1352:110E       _TAStoIAS
 1352:1178       _TblTRPL
 6058:26F0       _TB_CTRX
 6058:26F2       _TB_CTRY
 6058:1E82       _tchdwnrating
 6058:2742       _TDBRp
 6058:2730       _TDBRpX
 1B72:13F8       _TD_box
 6058:3146       _tempbehavevar
 6058:A09A       _tempgotcha
 6058:151A       _tempsound
 6058:151C       _tempsound2
 6058:3144       _tempvar
 6058:8B4A       _tempx
 6058:8D6E       _tempy
 45E8:01BD       _TEST3DOBJECT
 6058:3DBA       _TestIt
 1CDB:022E       _TestJoy
 6058:8D62       _TEWSprites
 41A7:049E       _TEWS_GFX
 41A7:0422       _TEWS_RANGE
 41A7:0448       _TEWS_SPOTTED
 41A7:0004       _TEWS_SYS
 3BFA:0284       _TextInTheBox
 6058:1F92       _TFAPTR
 6058:1F94       _TFAPTRCNT
 6058:1F52       _TFAS
 5419:92E4       _THREATS
 6058:1D32       _THRUST
 6058:1510       _ThrustChange
 6058:A0AC       _ThrustI
 6058:AC44       _ThrustStick
 6058:150A       _TickDelay
 428C:0224       _TIDAttkInfo
 428C:04F2       _TIDDisplayHorz
 5419:8F24       _TIDMask
 0DCD:1ADC       _TIDShowRange
 6058:47DE       _TIDTargetCnt
 6058:8986       _TIDTargetList
 428C:059C       _TIDxy
 428C:0692       _TID_DisplayScanLimits
 428C:06E6       _TID_draw_target
 6058:47E0       _TID_MODE
 6058:EDD6       _TILEBUF
 6058:8A16       _TILECOLORS
 1699:021C       _TimeConditionCheck
 6058:A0EC       _TimeOfDay
 6058:100E       _TimeOnHook
 6058:3726       _timetargetplayer
 6058:1D02       _TM
 484F:057B       _TMUL
 1352:14F8       _ToggleAutoTrim
 5419:0E68       _TopCockpitMask
 6058:A100       _TotalGameTicks
 07EF:02A2       _TrackBullets
 428C:01B4       _TrackDisplayPosition
 484F:02DE       _Trans3X3
 6058:CED8       _TransAmount
 6058:CD90       _TRANSGREYPTRS
 2D76:42AA       _TranslateBehavior
 3F3D:0412       _TransRectCopy
 4A64:000A       _TransScaleLine
 4A5B:0000       _TrgMul
 6058:81E8       _TRGTB
 481A:003E       _Trigger2
 6058:1E84       _TRIM
 6058:1D24       _TrimAOA
 1352:1530       _TrimIt
 3373:1192       _TrooperDrop
 6058:E94A       _trs
 6058:B13A       _Tscale
 6058:AC06       _TSpeed
 6058:ECFC       _TTI
 231E:859E       _TurnAIPlaneBy
 45D0:0072       _TurnOnGraphicsMode
 08DC:317C       _TurnTo
 6058:8A20       _Txt
 40D5:00B6       _uangle
 3F0F:01F4       _UnInitSpeech
 0DCD:3D4E       _UnZoomDisplay
 06EE:0788       _UpdateAIsOnCarrier
 0365:1168       _UpdateBeam
 06EE:0252       _UpdateBoatHeadPitchRoll
 06EE:02BC       _UpdateBoatSpeedAndPosition
 08DC:1618       _UpdateCarrierAnim
 403D:00C2       _UpdateCloseBase
 0DCD:3DF2       _UpdateCockpitLites
 0365:2748       _UpdateConsoleXY
 231E:1382       _UpdateHeadPitchRoll
 231E:9C20       _UpdateHelicopterHPR_SandP
 231E:A500       _UpdateI
 3373:0348       _UpdateInterceptGroup
 3F0F:0200       _UpdateJetSnd
 0DCD:3DF8       _UpdateLights
 06EE:06DA       _UpdateOurCarrier
 0133:0E9C       _UpdateOurPlaneAnims
 3373:3C8E       _UpdateOurWPS
 0C13:1A5C       _UpdatePadlockAngles
 1699:0084       _UpdatePalBuf
 1699:00EA       _UpdatePalette
 231E:1636       _UpdateSpeedAndPosition
 0C13:19EC       _UpdateSteadyAngles
 0365:1302       _UpdateSweep
 0365:17A4       _UpdateTargetClosure
 0365:2F1C       _UpdateTIDTargs
 403D:08A6       _UpdateTime1
 403D:08F8       _UpdateTime2
 0365:0226       _UpdateTWSSelected
 2D76:0598       _UpdateWing
 6058:0848       _V
 6058:8A1A       _VCent
 439C:0000       _VdiCrt
 08DC:1C24       _vdiils
 5419:862C       _VdiMask
 6058:1A48       _VdiMode
 439C:0BB2       _VDITacxy
 3373:0516       _VectorIntercept
 1B72:0114       _vel_vector
 4790:01F5       _VERTFLINE
 4790:0054       _VGADRAWDOT
 6058:E944       _vHead
 6058:CEB8       _View
 6058:75D8       _viewmat
 6058:A10A       _ViewX
 6058:AC08       _ViewY
 6058:AC22       _ViewZ
 6058:9EF2       _VM
 6058:CEC4       _vPitch
 6058:AC3C       _vRoll
 6058:4974       _vScale
 1B72:014E       _VSLScan
 45D0:00A4       _vsprintf
 6058:EDF8       _VVI
 6058:0836       _VX
 6058:0838       _VY
 6058:083A       _VZ
 1788:00F8       _WaitScreen
 40D5:01CA       _WaitTicks
 231E:5B90       _Wall
 231E:63E4       _Wall2
 6058:A0A4       _warstatus
 1B72:0048       _waterline
 6058:1010       _WavedOff
 6058:B140       _WaveHeight
 6058:8D8C       _WaveSpeed
 3D18:0092       _WeaponHoming
 6058:1CB8       _Weight
 6058:F804       _whichdefensethreat
 6058:DF6A       _whichourcarr
 6058:8B4C       _WingID
 6058:0884       _WingRot
 6058:1504       _WingsReady
 6058:0ED6       _WireCaught
 44CB:0CD6       _WithinVisualRange
 6058:8D82       _World
 6058:2156       _WorldColor
 6058:ED06       _WORLDDETAIL
 45D0:0170       _WorldName
 6058:E0B8       _WORLDXOFF
 6058:8A7A       _WORLDXPOS
 6058:D8A0       _WORLDXTRAX
 6058:D8C0       _WORLDXTRAY
 6058:DA46       _WORLDXTRAZ
 6058:E940       _WORLDYOFF
 6058:ECEE       _WORLDZOFF
 6058:8AAC       _WORLDZPOS
 6058:AC42       _WPMode
 6058:4504       _wps
 3BFA:0026       _WpsStar
 40D5:0108       _wrd
 6058:1E14       _W_WEIGHTS
 1E6B:0006       _X2map
 6058:E904       _XBASE
 6058:B142       _XEB
 6058:AC00       _xlast
 6058:44E8       _XPLOANIMS
 6058:4194       _XPLODETAIL
 6058:D8BA       _XSpot
 40D5:0050       _xydist
 6058:DF72       _XYDSP
 1E6B:001E       _Y2map
 6058:CD4C       _YEB
 6058:AC1C       _ylast
 6058:EC5A       _ZBASE
 48ED:00FF       _ZClip
 6058:CD98       _ZEB
 6058:1B98       _ZHEAD
 6058:AC32       _zlast
 0DCD:3D08       _ZoomDisplay
 6058:DA3A       _ZSpot
 6058:780E       _ZUMEFACTOR
 6058:D8B4       __acrtused
 45D0:014A       __aFldiv
 45D0:013E       __aFlmul
 45D0:0146       __aFNaldiv
 45D0:0142       __aFNalmul
 45D0:0140       __aFNalshl
 45D0:0144       __aFNalshr
 45D0:0148       __aFuldiv
 45D0:014C       __aFulmul
 45D0:00E6       __bios_keybrd
 6058:B11A       __ctype
 6058:4152       __current_mode
 6058:4156       __current_video_font
 6058:4154       __current_video_mode
 6058:4158       __current_video_rows
 45D0:00E0       __dos_allocmem
 45D0:011A       __dos_close
 45D0:012C       __dos_open
 45D0:010A       __dos_read
 45D0:00D4       __filbuf
 2017:01FA       __fimemset
 45D0:0178       __fmemcpy
 45D0:017E       __fstrcat
 45D0:0180       __fstrcpy
 6058:30CA       __mono_attribute
 6058:E0DA       __mono_buffer
 6058:30D0       __mono_loc
 6058:30CC       __mono_x
 6058:30CE       __mono_y
 6058:E8FE       __training

  Address         Publics by Value

 0000:0000  Abs  _end
 0000:0000       _CheckTargetHit
 0000:0006       _Load3DPlaneInfo
 0000:02E2       _PlaneSeek
 0000:0324       _RadarAdd
 0000:04F0       _MissileAdd
 0000:0748       _GetPicType
 0000:07BC       _GetPlanePtr
 0000:0828       _GetMissilePtr
 0000:08CE       _GetRadarPtr
 0000:0974       _Release3DMemory
 0000:0988       _Init3DPlanes
 0000:0A16       _LoadSpecialObjects
 00CC:0004       _LoadEMSDataFile
 00CC:0108       _LoadObjFile
 00CC:0122       _LoadBigEMSFile
 00CC:0234       _MapIn3dObjects
 00CC:02A6       _LoadEMSPicFile
 00CC:036C       _MapInEMSSprite
 00CC:040A       _FreeEMS
 00CC:043A       _Error
 0113:0002       _Bgn3D
 0113:0034       _End3D
 0113:00FE       _SetDrawWindow
 0113:01A8       _SetViewRot
 0113:01F6       _SetViewPos
 0133:000E       _Do3DObject
 0133:00FC       _Boats3D
 0133:019C       _Shift3X3
 0133:01C0       _DrawRegBoat
 0133:0226       _Planes3D
 0133:0618       _DrawShadow
 0133:0666       _DrawChute
 0133:06C4       _DrawDecoy
 0133:0722       _DrawMissile
 0133:0808       _Init3DMissiles
 0133:08A2       _AnimIsRunning
 0133:08BE       _CoolF14MissileAnims
 0133:099A       _DrawCoolF14
 0133:0E96       _HookDownAnim
 0133:0E9C       _UpdateOurPlaneAnims
 0133:11C6       _InitOurCoolPlane
 0133:120E       _DrawTexPlane
 0298:000A       _NDraw3D
 0298:0104       _Init3DPal
 02B0:0006       _doaaa
 02B0:0318       _CheckAAAHit
 02F9:0008       _AdiCrt
 0310:0000       _ARMT_MODE
 0310:0016       _AA_MODE
 0310:0034       _ARMT_INIT
 0310:0046       _load_aa_stations
 0310:01EA       _ARMT_get_priority
 0310:0200       _AAGetPriority
 0310:0224       _AAGetStation
 0310:0280       _aa_cnt_weapons
 0310:032E       _ARMT_release
 0310:0344       _ARMT_jettison_all
 0347:000A       _AwacsPicture
 0347:00F6       _BearingToText
 0347:0180       _NSpeech
 0365:0004       _AWG9
 0365:0066       _InitTWSData
 0365:00C0       _GetWeaponCount
 0365:0112       _InitMode
 0365:0180       _AWG9_ACQ
 0365:0190       _AWG9_MODE_BREAK
 0365:01D0       _AWG9_EL
 0365:0226       _UpdateTWSSelected
 0365:04AC       _AWG9_IFF
 0365:0734       _AWG9_INIT
 0365:07B4       _AWG9_CHANGE_MODE
 0365:0C86       _CheckAZELChange
 0365:0D10       _ClearTargetFile
 0365:0D36       _CheckMode
 0365:0D9E       _AWG9_LOCK
 0365:0E0C       _ChangeModerateScan
 0365:0EEC       _ChangeSRCHMode
 0365:0FBC       _AWG9_POWERUP
 0365:1026       _CHANGE_NUM_BARS
 0365:106C       _CHANGE_AZIMUTH
 0365:10B0       _AWG9_INC_RANGE
 0365:10C2       _AWG9_DEC_RANGE
 0365:1168       _UpdateBeam
 0365:1302       _UpdateSweep
 0365:1370       _StandardReset
 0365:139C       _TargetTrack
 0365:1644       _LockDistanceCheck
 0365:17A4       _UpdateTargetClosure
 0365:1A02       _LDist3D
 0365:1CD6       _SearchForTargets
 0365:1F20       _ResetTargetTrack
 0365:1F60       _ResetBar
 0365:1FBE       _SetupNewTarget
 0365:20D2       _orient_to_player
 0365:217C       _InBeam
 0365:2748       _UpdateConsoleXY
 0365:28C4       _AddTargetFile
 0365:28F8       _DelTargetFile
 0365:294E       _RioLockCheck
 0365:2A42       _SpecialModeAcq
 0365:2AFE       _StandardSpecialModeAcq
 0365:2B96       _aa_acquire
 0365:2D66       _DesignateTIDTarg
 0365:2E58       _SelectDesig
 0365:2F1C       _UpdateTIDTargs
 0365:2F1E       _BuildAcqList
 0365:2F9E       _InAcqList
 0365:2FD6       _AddAcqList
 0365:314E       _DetermineShootParams
 0365:322E       _ResizeASE
 0365:3362       _AWG9_project
 0365:3510       _FiringOrder
 0365:352C       _BuildFiringList
 0365:3602       _InFiringList
 0365:363A       _AddFiringList
 0365:36C2       _CheckDataLink
 06EE:000E       _doboats
 06EE:0252       _UpdateBoatHeadPitchRoll
 06EE:02BC       _UpdateBoatSpeedAndPosition
 06EE:06A4       _IsBoat
 06EE:06DA       _UpdateOurCarrier
 06EE:0788       _UpdateAIsOnCarrier
 06EE:0986       _CheckBoatGunFiring
 06EE:0BE2       _FormationSpeedAdjustBoat
 06EE:0D50       _FormationBoat
 06EE:0F68       _AvoidLand
 07EF:0004       _InitCannonRate
 07EF:0056       _docannon
 07EF:0108       _firecannon
 07EF:01C6       _dotracers
 07EF:02A2       _TrackBullets
 07EF:0A3C       _DrawBullets
 07EF:0B24       _BulletDist
 07EF:0BB2       _CheckBulletBetter
 07EF:0E6C       _IsDeckPlane
 08DC:0008       _InitCarrier
 08DC:08AC       _InitCarrierObjects
 08DC:09C0       _InitPlaneOnCarrier
 08DC:0B2C       _GetCatHeading
 08DC:0B4C       _Carrier3D
 08DC:0EE2       _DrawCarrier
 08DC:1348       _InBox
 08DC:1376       _InBoxLng
 08DC:13CC       _OnCarrier
 08DC:14C2       _GlideScopeCheck
 08DC:1592       _DisplayBall
 08DC:1612       _CarrierLanding
 08DC:1618       _UpdateCarrierAnim
 08DC:181C       _KeepPlaneOnCarrier
 08DC:1B70       _ils
 08DC:1C24       _vdiils
 08DC:1D22       _OnTheDeck
 08DC:2024       _SetPosOnCat
 08DC:2124       _DoPlayerOnTheCat
 08DC:2328       _DoPlayerOnTheHook
 08DC:2638       _SlopeCheck
 08DC:2780       _SetGear
 08DC:27E4       _SetDLC
 08DC:27F0       _SetHook
 08DC:2826       _EasyLanding
 08DC:29F2       _DoLSO
 08DC:2DDE       _MoveAIToCat
 08DC:317C       _TurnTo
 0BF8:000E       _RequestCat
 0BF8:0122       _PreparePlane
 0BF8:0136       _ReadyLaunch
 0BF8:014E       _SaluteCatOfficer
 0BF8:0150       _PlaneLaunched
 0BF8:01B8       _LaunchAircraft
 0C13:000E       _TakeInputs
 0C13:009A       _GetJoystickInputs
 0C13:0200       _CheckMouseInput
 0C13:06BA       _CursorInCrt
 0C13:07B0       _ProcessInputs
 0C13:0840       _Cmds
 0C13:156E       _LocalCmds
 0C13:18D2       _ProcessCoolyCmds
 0C13:1928       _FrontSeatCoolyCmds
 0C13:1990       _BackSeatCoolyCmds
 0C13:19EC       _UpdateSteadyAngles
 0C13:1A5C       _UpdatePadlockAngles
 0C13:1AE8       _PauseMode
 0C13:1B3C       _NoAccel
 0C13:1B62       _KBInit
 0C13:1B8E       _PutNumLockBack
 0DCD:0006       _LoadNewCockpit
 0DCD:0172       _BuildCockpitSprites
 0DCD:0310       _LookDown
 0DCD:0368       _LookUp
 0DCD:03C0       _Flip
 0DCD:068C       _ConfigCrts
 0DCD:06B4       _DoCockpitDisplays
 0DCD:0808       _DisplayMaster
 0DCD:0846       _DrawRadarStatus
 0DCD:0A00       _GDisplay
 0DCD:0B20       _DisplayTIDSwitches
 0DCD:0C18       _DisplayLeftStuff
 0DCD:1002       _DisplayRightStuff
 0DCD:13F8       _DrawRadarElev
 0DCD:1490       _DrawRadarAlt
 0DCD:15F4       _DrawAirSpeedGauge
 0DCD:16C4       _DrawIndexer
 0DCD:171E       _DrawWayPoint
 0DCD:1850       _DrawRadarDials
 0DCD:1ADC       _TIDShowRange
 0DCD:1CD8       _DrawRadarRange
 0DCD:1DC8       _DDDSwitchRefresh
 0DCD:2344       _DDDSwitches
 0DCD:2DD0       _DrawCompass
 0DCD:2EBE       _DrawVVGauge
 0DCD:2FE0       _DrawAltGauge
 0DCD:3164       _DrawStores
 0DCD:340A       _DrawAOADisplay
 0DCD:3522       _DrawSweepDisplay
 0DCD:36FC       _DrawEngineStat
 0DCD:3AD0       _DisplayBackLights
 0DCD:3B86       _DisplayLights
 0DCD:3BF4       _DoCRT
 0DCD:3D08       _ZoomDisplay
 0DCD:3D4E       _UnZoomDisplay
 0DCD:3D94       _MakeItGreen
 0DCD:3DBC       _ResetCockpitLights
 0DCD:3DF2       _UpdateCockpitLites
 0DCD:3DF8       _UpdateLights
 0DCD:4100       _ShowFuel
 0DCD:437E       _EngineAlreadyOn
 0DCD:4380       _EngineMonitor
 0DCD:4382       _JetisonSwitch
 0DCD:4468       _MasterArmSwitch
 1227:000C       _DoDDD
 1227:00A0       _show_az_carat
 1227:01A0       _DDDWeaponRanges
 1227:028A       _DopplerCheck
 1227:02FA       _ShowTargets
 1227:0388       _DDDTargetDraw
 1227:03E0       _DDD_horizon_line
 1227:04B2       _show_rmin_rmax
 1227:06E8       _draw_circle
 12B7:000C       _fstrcpy
 12B7:002E       _fstrcmp
 12B7:006E       _NewEmsFunction
 12B7:00B8       _LoadTheWorld
 12B7:01A8       _LoadGroundObjects
 12B7:01F0       _GetEmsMem
 12B7:02C0       _ResizeEmsMem
 12B7:034E       _MapEmsFile
 12B7:0400       _MapInBank
 12B7:0438       _FileInEms
 12B7:047E       _GetNextEMSfile
 12B7:04B8       _MakeEMSFileBlock
 12B7:053E       _EMSFileUsage
 12B7:0570       _ReadEMSPCX
 12B7:058A       _ReadEMSPCXSize
 12B7:06AA       _LoadEmsFile
 12B7:07E6       _ReadPCX
 12B7:0806       _ReadPCXSize
 1352:0008       _InitFlightModel
 1352:0138       _FLIGHT
 1352:110E       _TAStoIAS
 1352:1178       _TblTRPL
 1352:11C0       _PlaneDrag
 1352:121A       _PlaneWeight
 1352:126A       _InitScottFlight
 1352:137A       _Density
 1352:13D6       _EngineBreathe
 1352:1400       _Get1GTrim
 1352:14F8       _ToggleAutoTrim
 1352:1530       _TrimIt
 1352:158C       _DoFuel
 1352:166C       _ScottFlight
 1352:31C0       _Splatted
 1699:0008       _InitFlir
 1699:0084       _UpdatePalBuf
 1699:00EA       _UpdatePalette
 1699:021C       _TimeConditionCheck
 1699:033A       _NSetGreyPal
 1699:0846       _FireColors
 1699:08F4       _ChangeHUDColor
 1699:094E       _ChangeHUDFilter
 1699:0988       _InitSpecialPal
 1751:0004       _MatrixMul
 1751:0032       _Decompose
 1751:01DA       _abs
 1751:01FE       _IntDiv
 1751:027C       _Iasin
 1751:0306       _Iacos
 1751:031A       _Sqrt
 1788:0002       _main
 1788:00F8       _WaitScreen
 1788:011A       _InitAbort
 1788:014C       _InitWeather
 1788:014E       _DisplayErrorMessages
 1788:01D4       _LoadFiles
 1788:02F4       _InitDamnPalettes
 1788:0360       _LoadConfig
 1788:03D8       _LoadSoundConfig
 1788:0412       _MainGameLoop
 1788:04C2       _InitGraphicPages
 17D9:000C       _LoadHorz
 17D9:02A6       _LoadClouds
 17D9:02C0       _NHorz
 17D9:0F9E       _EndStack3D
 17D9:11D6       _Stack3DObject
 17D9:135C       _Map3d
 17D9:153A       _InPoly
 17D9:15C0       _SurfHt
 17D9:16A2       _GroundHeight
 17D9:19C6       _RotatingMap
 17D9:1D7A       _CheckAAA
 17D9:1E8E       _DrawAAA
 19CC:0002       _HiResMap
 19CC:0330       _SetHiResMap
 19CC:03BA       _RefreshHRM
 19CC:03C2       _HrmLock
 19CC:0448       _HrmRemap
 19CC:0486       _CheckHrmRemap
 19CC:04E0       _CheckHRMLimits
 19CC:0634       _HRM_kb_acquire
 1A4B:0006       _scaley
 1A4B:0028       _fourpoints
 1A4B:006C       _circlepoints
 1A4B:00EA       _drawcircle
 1A4B:0182       _pitchbar
 1A4B:0238       _pitchnum
 1A4B:034E       _scaler
 1A4B:0360       _pitchbar2
 1A4B:0708       _pitchnum2
 1A4B:0848       _headingscale
 1A4B:09E4       _HsdCrt
 1A4B:11DA       _SteerRange
 1B72:0000       _HUD
 1B72:001C       _HUD_master
 1B72:0036       _HUD_standard
 1B72:0048       _waterline
 1B72:0114       _vel_vector
 1B72:014E       _VSLScan
 1B72:01DC       _hdg_scale
 1B72:031E       _hdg_indicator
 1B72:0390       _pitch_ladder
 1B72:04AE       _horiz_line
 1B72:053E       _HUDPitchLine
 1B72:07FC       _pitch_line
 1B72:0A00       _dashline
 1B72:0B24       _HUD_nav
 1B72:0B26       _HUD_aa
 1B72:0B6E       _missile_cnt
 1B72:0C9E       _get_count
 1B72:0CFA       _ase_circle
 1B72:0D50       _bst_circle
 1B72:0D7C       _range_bar
 1B72:0F3C       _PDT_closure
 1B72:10E2       _PDT_range
 1B72:12C2       _gun_reticle
 1B72:1398       _break_x
 1B72:13F8       _TD_box
 1B72:148A       _steering_dot
 1B72:1588       _diamondbox
 1B72:1622       _draw_shoot_cue
 1CDB:000E       _JoyRecal
 1CDB:022E       _TestJoy
 1CDB:0650       _CenterPrint
 1D43:0008       _GetJoyConfig
 1D43:00B2       _SaveJoyConfig
 1D58:000C       _LoadScottMission
 1D58:0DE4       _AddGroundTarget
 1E6B:0006       _X2map
 1E6B:001E       _Y2map
 1E6B:0036       _mplot
 1E6B:00C0       _MapLoc
 1E6B:010A       _Project2D
 1E6B:0168       _DeProject2D
 1E6B:01CA       _Rotate2D
 1E8C:000C       _MainMenu
 1E8C:03F2       _menu
 1E8C:09A2       _MouseSETUP
 1E8C:0C54       _pstrlen
 1F87:0006       _Messages
 1F87:001A       _Message
 1F87:007E       _MsgBox
 1F87:013C       _MyMessages
 1F87:0478       _MyMessage
 1F87:0632       _MBox
 1F87:06C8       _MsgPrnt
 1F87:0702       _InSideMSGBox
 1F87:073A       _OutSideMSGBox
 1F87:0772       _OutSideHeading
 2017:0000       _mprintf
 2017:002C       _mono_scroll
 2017:0080       _mono_out
 2017:01FA       __fimemset
 2017:0200       _mset_pos
 2017:0222       _mclear_screen
 203C:0002       _MapEMSObject
 203C:0056       _MapEMSObjectTexture
 203C:00A8       _SetMatsPtrsOrder
 203C:059C       _Reject
 203C:0682       _DrawASurf
 203C:0BA6       _DrawSurfs
 203C:0BFC       _DrawN3dObject
 203C:0CAE       _NDraw3DObject
 203C:0D0E       _DrawSuper3DObject
 203C:0D88       _LoadEMSObject
 2122:000E       _LPoly
 2122:008A       _Npoly3D
 2122:0312       _Nline3D
 2122:0400       _NDot3D
 2166:0006       _DrawSBox
 2166:0432       _MakeMidGridPt
 2166:04E4       _MakePTS
 2166:063A       _MakeBoxes
 2166:07AE       _MakeBoxVis
 2166:0A72       _DoBox
 2166:1240       _GetQHeight
 2166:1384       _IsLand
 2166:13F4       _DrawLandObjects
 2166:151E       _DrawNLand
 230D:0008       _InitOptions
 230F:0000       _dig_load_overlay
 231E:0000       _doplanes
 231E:0962       _GetAltPitch
 231E:09A8       _GetDestinationXYZ
 231E:0A8A       _GetDestinationAngles
 231E:0B44       _TakingOff
 231E:1086       _AvoidMountains
 231E:1382       _UpdateHeadPitchRoll
 231E:1636       _UpdateSpeedAndPosition
 231E:1E0A       _Landing
 231E:206E       _ReturnToBase
 231E:20EC       _search
 231E:2912       _CheckTailAspect
 231E:299C       _ActivatePlane
 231E:2BCE       _GetTargADP
 231E:2CCA       _CheckGunFiring
 231E:2E9E       _CoreCheckGunFiring
 231E:310A       _GetEnemyTarget
 231E:3636       _IsCAPFlier
 231E:36FA       _IsRefueling
 231E:3700       _FriendlyChooseBehavior
 231E:3ABE       _KeepBehavior
 231E:3E2C       _ChooseBehavior
 231E:4652       _StraightAttack
 231E:4CEC       _Ladder
 231E:528E       _Box
 231E:58D6       _Champagne
 231E:5B90       _Wall
 231E:62AC       _FreeFighter
 231E:63E4       _Wall2
 231E:6538       _Ladder2
 231E:6840       _LadderCircle
 231E:6B3A       _CheckDetection
 231E:6C46       _CheckAnyEnemyLock
 231E:6CAE       _ShowAIWeaponStatus
 231E:6E00       _ShowAIStatus
 231E:6F00       _ShowMenuStuff
 231E:6F5C       _ProcessAICommunications
 231E:743C       _ProcessAICommMenu
 231E:7938       _DoVSeperation
 231E:7A10       _LowBombTarget
 231E:7A58       _AIGetBombDist
 231E:7BAE       _AIBombTarget
 231E:7FF0       _BOMB_TrackingAI
 231E:8106       _DESIGNATED_TrackingAI
 231E:833A       _DropAIBomb
 231E:859E       _TurnAIPlaneBy
 231E:85CA       _InitAddedWingmen
 231E:86A6       _CheckAIBombs
 231E:87B0       _CheckAIMissiles
 231E:88BA       _NearWingTarget
 231E:8A26       _AIRadarForwardCheck
 231E:8A58       _AIRadarRearCheck
 231E:8A8A       _AICoreRadarCheck
 231E:8E2C       _GiveSanitizeMessage
 231E:9152       _AISanitizeGroupCheck
 231E:929A       _AISanitizeCheck
 231E:9428       _FlySanitize
 231E:9564       _AIFoxCall
 231E:95E2       _GetWingName
 231E:9624       _ChangeGroupBehavior
 231E:97CC       _AddSomePlanes2
 231E:9C20       _UpdateHelicopterHPR_SandP
 231E:A500       _UpdateI
 231E:A518       _ImNotaFighter
 2D76:000E       _SetUpWingman
 2D76:0598       _UpdateWing
 2D76:07F6       _GetSquadLeader
 2D76:0832       _GetBehaviorLeader
 2D76:0844       _GetLeaderCore
 2D76:09BC       _CloseInFight
 2D76:0C0C       _CheckWingmanSix
 2D76:0ECC       _CheckAITarget
 2D76:0F8C       _FormationSpeedAdjustUS
 2D76:13C4       _Jink
 2D76:171A       _Formation
 2D76:1B8A       _FormationUS
 2D76:1E9E       _BracketLeft
 2D76:1EBE       _BracketRight
 2D76:1EDE       _FlyStraight
 2D76:1EFA       _CheckRadarSet
 2D76:2074       _Jink2
 2D76:2426       _PostHole
 2D76:2530       _BaseBracket
 2D76:284E       _DoAICounters
 2D76:2A42       _EvadeMissile
 2D76:2BAA       _DamageAI
 2D76:2DDE       _GetSortInfo
 2D76:3068       _GiveSortInfo
 2D76:3286       _SetUpCAP1
 2D76:346E       _SetUpOval1
 2D76:359E       _SetUpCAP2
 2D76:36C6       _SetUpOval2
 2D76:37A2       _SetUpCAP3
 2D76:37E2       _SetUpOval3
 2D76:38F4       _CAPTurn1
 2D76:399A       _OvalTurn1
 2D76:3AD4       _CAPTurn2
 2D76:3BC2       _OvalTurn2
 2D76:3CFE       _CAPLeg1
 2D76:3DD8       _CAPLeg2
 2D76:3E20       _CheckCAP
 2D76:3F9E       _CAPAI
 2D76:4148       _FlyTo
 2D76:42AA       _TranslateBehavior
 2D76:4506       _FlyWayPoint
 2D76:4C0A       _ShowJettison
 2D76:4EDC       _SlewOurWingmen
 2D76:4F48       _DoHover
 2D76:4F70       _GetAIBase
 2D76:5038       _AIGoHome
 2D76:516E       _AIGoHome2
 2D76:5244       _CheckAISix
 2D76:542A       _GorillaBomb
 2D76:5824       _Langle
 2D76:58C6       _LGetTargADP
 2D76:5A4E       _LFlyTo
 2D76:5D08       _LDist2D
 2D76:5E14       _absL
 2D76:5E3E       _sinXL
 2D76:5EDE       _cosXL
 2D76:5F7E       _FirstTargInGroup
 3373:000A       _InterceptControl
 3373:0148       _CheckIfCanIntercept
 3373:02A6       _GetCloseAirBase
 3373:0348       _UpdateInterceptGroup
 3373:0516       _VectorIntercept
 3373:0A2A       _GetInterceptPlane
 3373:0C20       _LocationPicture
 3373:10F6       _CheckE2C
 3373:1192       _TrooperDrop
 3373:12AC       _LaunchCruise
 3373:171A       _FlyCruise
 3373:1864       _GetLastPosition
 3373:1BF2       _FlyWPFollowPlayer
 3373:1CF2       _FollowPlayer
 3373:1E68       _GetWhoCover
 3373:2028       _GorillaCover
 3373:22C4       _RearCover
 3373:25E8       _SARCAP1
 3373:274C       _SARCAP2
 3373:2882       _SARCAP3
 3373:29B8       _SARCAP0
 3373:2A70       _GetWayPointChanges
 3373:2D32       _DoNextWayPt
 3373:2ED0       _GetWayXYZ
 3373:2FD6       _GetPlanePointXYZ
 3373:314A       _Ready5
 3373:316C       _ReturnBaseInfo
 3373:3206       _GetPlayerHelp
 3373:3304       _ProcessOtherComm
 3373:3400       _DoCAPReplace
 3373:3598       _SARWait
 3373:35CE       _SAR
 3373:378C       _GetSAR
 3373:38C8       _GetSARCover
 3373:3A56       _RestoreCover
 3373:3BD2       _IsBombing
 3373:3C22       _FriendStatus
 3373:3C48       _FriendMatch
 3373:3C72       _FriendMatchType
 3373:3C8E       _UpdateOurWPS
 3373:3F66       _CloseEnoughFor
 3373:3FD6       _FormOnWP
 3373:4202       _GetPlaneOrgNum
 3373:426C       _CheckForMobileR5
 3373:43D4       _MovePlane
 3373:4474       _CruiseDistruct
 3373:4520       _CheckPlaneBlast
 3373:4988       _EngageTrain
 3373:49B4       _JustPutHere
 3373:4B0E       _SetUpLaunch
 3373:4D5C       _GetNextLaunch
 3373:4F80       _DoAltHover
 3373:513E       _GetRadarGTNum
 3373:51BC       _GetGTRadarNum
 3373:5238       _IndirectWPCorrection
 3373:5446       _LetWingmenContinue
 3373:54EE       _ShowOurWPS
 3373:5738       _GetDAltSpeed
 3373:57C4       _CheckTurnStuff
 3373:5B50       _AICarrierLand
 3373:63BA       _MoveAIToElevator
 3373:65E4       _DoLandWait
 3373:67B8       _CheckPlaneLand
 3373:6AFA       _LetNextPlaneLand
 3373:6CC6       _GetPlaneLanding
 3373:6D64       _GetWhichElevator
 3373:6F12       _CheckIsWayTarget
 3373:6FC8       _DoGroupAction
 3373:70C0       _DoOClockCall
 3373:7346       _Immelmann
 3373:7430       _SplitS
 3373:761A       _ReArmWingman
 3ADD:000C       _doradar
 3ADD:00B4       _detect
 3ADD:062A       _Rsignal
 3ADD:0856       _gotcha
 3ADD:0906       _RsignalOne
 3B8C:000C       _DisplayRioHead
 3B8C:04FE       _HeadProject
 3BFA:0004       _BigRioDot
 3BFA:0026       _WpsStar
 3BFA:0068       _DrawRioWayPoints
 3BFA:0216       _GetToken
 3BFA:0284       _TextInTheBox
 3BFA:0396       _DrawRioMapInfo
 3BFA:0B8C       _RioMap
 3BFA:113E       _RioTop
 3D18:0006       _dosams
 3D18:0092       _WeaponHoming
 3D18:00CC       _All2AirHoming
 3D18:028C       _Air2GroundHoming
 3D18:06C4       _CheckIncomingWarning
 3D18:06E4       _SteerAndMoveMissile
 3D18:0BA0       _CheckGroundHit
 3D18:0D4E       _CheckProximityHit
 3D18:1186       _AirKill
 3D18:138E       _DamageMe
 3D18:14E4       _DamageIt
 3D18:15E6       _firemissile
 3D18:175C       _firemissile2
 3D18:1A08       _FindEmptyMissileSlot
 3D18:1A40       _FindEmptyMissileSlot2
 3D18:1AA4       _FindEmptyMissileSlotP
 3D18:1BCE       _MissilesInAir
 3D18:1C08       _FoxCall
 3D18:1C8E       _LaunchCall
 3D18:1CBE       _CheckBlastArea
 3F03:0000       _save_video_state
 3F03:009E       _restore_video_state
 3F0F:0002       _InitSound
 3F0F:00BC       _OtherJetSound
 3F0F:00D2       _Sound
 3F0F:0104       _InitSpeech
 3F0F:01D0       _Speech
 3F0F:01F4       _UnInitSpeech
 3F0F:0200       _UpdateJetSnd
 3F0F:0222       _AdjustSounds
 3F0F:027A       _Aim9Sound
 3F3D:000A       _LoadSprites
 3F3D:019A       _ScaleRotate
 3F3D:0412       _TransRectCopy
 3F3D:05A4       _DrawXploSprite
 3F3D:0610       _StartASmoke
 3F3D:087E       _DrawASmoke
 3F3D:0C2C       _ShowSmokesNoChange
 3F3D:0CA6       _HandleSmoke
 403D:0000       _InitStealth
 403D:0060       _Stealth
 403D:00C2       _UpdateCloseBase
 403D:00E2       _FindCloseBase
 403D:015C       _CheckLandingAndCrash
 403D:02E8       _dropdecoy
 403D:04CE       _dodecoys
 403D:0574       _dochute
 403D:05D0       _Help
 403D:0616       _JettisonFuel
 403D:0626       _EndGame
 403D:062E       _GetSide
 403D:0662       _LogIt
 403D:08A6       _UpdateTime1
 403D:08F8       _UpdateTime2
 40D5:000E       _rng
 40D5:0038       _rng2
 40D5:0050       _xydist
 40D5:00B6       _uangle
 40D5:00D6       _sinX
 40D5:00F2       _cosX
 40D5:0108       _wrd
 40D5:012A       _sgn
 40D5:014A       _seedme
 40D5:0168       _seedme2
 40D5:017E       _rnd
 40D5:01A0       _rnd2
 40D5:01CA       _WaitTicks
 40F4:000C       _DoTac
 40F4:05DA       _TacBox
 40F4:067A       _Tacxy
 40F4:081A       _TacScaleRotate256
 40F4:0A8C       _TacMap
 41A7:0004       _TEWS_SYS
 41A7:0044       _RadarThreats
 41A7:0124       _PlaneThreats
 41A7:0228       _MissileThreats
 41A7:0312       _SortThreats
 41A7:0422       _TEWS_RANGE
 41A7:0448       _TEWS_SPOTTED
 41A7:049E       _TEWS_GFX
 41A7:059C       _concentric
 41A7:070E       _show_range
 41A7:075A       _show_missiles
 41A7:07D4       _show_radar
 41A7:089E       _show_plane
 41A7:095A       _show_jamming
 41A7:0998       _convert_xy
 4251:0002       _DrawGunCameraView
 4251:0392       _GunCameraZoom
 428C:0008       _DoTID
 428C:01B4       _TrackDisplayPosition
 428C:0224       _TIDAttkInfo
 428C:04F2       _TIDDisplayHorz
 428C:059C       _TIDxy
 428C:0692       _TID_DisplayScanLimits
 428C:06E6       _TID_draw_target
 4356:000C       _project
 4356:01C4       _lproject
 4356:038E       _row3
 4356:03EC       _DistTo
 4356:0416       _DistToPlane
 4356:0438       _DistOf
 439C:0000       _VdiCrt
 439C:0BB2       _VDITacxy
 44CB:0008       _GenDsp
 44CB:016A       _SetupView
 44CB:0BD2       _NewMissileView
 44CB:0C20       _NewTacView
 44CB:0C3A       _NewLockView
 44CB:0CD6       _WithinVisualRange
 44CB:0D18       _DoPadLockView
 44CB:0E64       _FloatingHUD
 44CB:0F42       _CheckImHit
 45C3:0004       _InitLogFile
 45C3:0028       _DumpLogFile
 45C3:0068       _farfread
 45D0:000A       _SetGraphicPage
 45D0:000C       _MouseON
 45D0:0010       _DrawPoly
 45D0:0012       _LoadPicNoPal
 45D0:0014       _LoadPicToPal
 45D0:0016       _OpenSprite
 45D0:001A       _ClearPage
 45D0:001C       _MouseHIDE
 45D0:001E       _CharWidth
 45D0:0024       _RpPrint
 45D0:002A       _SndSysSetup
 45D0:002E       _LoadOverlay
 45D0:0034       _InitOverlay
 45D0:0036       _AllocGraphicPage
 45D0:003C       _AvailSysMem
 45D0:0040       _RectFill
 45D0:0042       _ShowPage
 45D0:0044       _CloseSprite
 45D0:0046       _ScreenOn
 45D0:0048       _LoadPicture
 45D0:004A       _MouseHITS
 45D0:004E       _LibCanDo
 45D0:0054       _GETTIME
 45D0:0058       _BuildSprite
 45D0:005E       _DrawLine
 45D0:0060       _RectCopy
 45D0:0062       _FontHeight
 45D0:0068       _MouseTYPE
 45D0:006A       _GetRpPixel
 45D0:0070       _ChangeColor
 45D0:0072       _TurnOnGraphicsMode
 45D0:0074       _ClipSprite
 45D0:007A       _MouseOFF
 45D0:007E       _LoadPalNoPic
 45D0:0080       _Shake
 45D0:0082       _LoadPicGmem
 45D0:0084       _MouseSHOW
 45D0:0086       _LoadPalToPal
 45D0:0088       _DrawDot
 45D0:008A       _SndSounds
 45D0:008E       _SndShutdown
 45D0:0090       _ShowSprite
 45D0:0092       _ScreenOff
 45D0:0094       _fopen
 45D0:009A       _fseek
 45D0:00A0       _rand
 45D0:00A4       _vsprintf
 45D0:00AA       _srand
 45D0:00AC       _strcpy
 45D0:00B2       _movedata
 45D0:00B4       _filelength
 45D0:00BA       _strncpy
 45D0:00C0       _sprintf
 45D0:00C6       _setjmp
 45D0:00CC       _longjmp
 45D0:00CE       _itoa
 45D0:00D4       __filbuf
 45D0:00DA       _ltoa
 45D0:00E0       __dos_allocmem
 45D0:00E6       __bios_keybrd
 45D0:00EC       _inp
 45D0:00F2       _fwrite
 45D0:00F8       _printf
 45D0:00FE       _memcpy
 45D0:0104       _getch
 45D0:0108       _exit
 45D0:010A       __dos_read
 45D0:0110       _strlen
 45D0:0116       _kbhit
 45D0:011A       __dos_close
 45D0:0120       _strcat
 45D0:0126       _strcmp
 45D0:012C       __dos_open
 45D0:0132       _fclose
 45D0:0138       _fread
 45D0:013E       __aFlmul
 45D0:0140       __aFNalshl
 45D0:0142       __aFNalmul
 45D0:0144       __aFNalshr
 45D0:0146       __aFNaldiv
 45D0:0148       __aFuldiv
 45D0:014A       __aFldiv
 45D0:014C       __aFulmul
 45D0:014E       _labs
 45D0:0150       _FlyGroupLine
 45D0:0152       _FlyTileLine
 45D0:0154       _FlyGroupine
 45D0:0156       _FlyStampLine
 45D0:0158       _FlyLine
 45D0:015A       _LockAG
 45D0:015C       _strupr
 45D0:0162       _isprint
 45D0:0168       _SetJoysticks
 45D0:016A       _ag_err_msgs
 45D0:016C       _ChangeWeather
 45D0:016E       _clip_rotmap
 45D0:0170       _WorldName
 45D0:0174       _OverlaySequencePoints
 45D0:0176       _S2MapLine
 45D0:0178       __fmemcpy
 45D0:017A       _rotate_pt
 45D0:017C       _SMapLine
 45D0:017E       __fstrcat
 45D0:0180       __fstrcpy
 45D0:0182       _GetRidOfKeyJoy
 45D0:0184       _Draw3dGroundObject
 45D0:0186       _Draw3dGroundObjects
 45E8:0008       _SETVIEWMAT
 45E8:00CF       _Draw3DObject
 45E8:01BD       _TEST3DOBJECT
 45E8:09A6       _CLIP3DNEW
 45E8:0F20       _GETOBJBOX
 45E8:0FC9       _ROTSTANDARD
 46EF:0000       _MakeRotationMatrix
 46EF:001A       MAKEROTATIONMATRIX
 46EF:0136       _InvertMatrix
 46EF:0155       _MatMul
 46EF:016C       MATMUL
 471E:000C       _POLYLINE
 471E:0048       _PLINE
 471E:0114       _FILLPOLY
 471E:01BB       _GDRAWLINE
 471E:0203       _DLINE
 471E:0212       _CLIP16
 471E:033D       _CLIP32
 4788:000A       _set_ctrl_b
 4788:004B       _reset_ctrl_b
 4788:0078       HANDLE_CTRL_B
 4790:0008       _InitGraph
 4790:0010       _GDRAWDOT
 4790:0015       _SETCOLOR
 4790:0019       _LINE
 4790:001D       _PFILL
 4790:0035       _SETWORKPAGE
 4790:0054       _VGADRAWDOT
 4790:0138       _FLINE
 4790:01F5       _VERTFLINE
 47E3:0006       _EMMThere
 47E3:003A       _EMSPageFrame
 47E3:0051       _EMSPagesLeft
 47E3:0068       _EMSAllocatePages
 47E3:008B       _EMSReleasePages
 47E3:00AF       _EMMMAPPAGE
 47E3:00F8       _EMMMapMultiPage
 47FA:0004       _EMSPRSNT
 47FA:0028       _EMSinit
 47FA:0055       _EMSSTAT
 47FA:0075       _EMSFRAME
 47FA:009E       _EMSpages
 47FA:00CC       _EMSalloc
 47FA:00F6       _EMSmap
 47FA:011F       _EMSfree
 47FA:0142       _EMSVER
 47FA:0169       _EMSSAVE
 47FA:018C       _EMSREST
 47FA:01AF       _EMSHANDS
 47FA:01D8       _EMSHSIZE
 47FA:0204       _EMSREAD
 481A:000A       _COLOSPECSETUP
 481A:003E       _Trigger2
 481A:007C       _InitJoy2
 481A:00A4       _INITS
 481A:00B9       _ReadJoy2
 481A:00E3       _JOYREAD
 481A:014F       _JOYCONVERT
 4834:0008       _InstallKeyJoy
 4834:0053       _RemoveKeyJoy
 484C:0006       _SetOvrlyRp
 484C:0029       _FIXEGA
 484F:0000       _SINB
 484F:002D       _COSB
 484F:005D       _ARCTAN
 484F:00D5       _ASinB
 484F:0116       _ACosB
 484F:015A       _ARCSIN
 484F:018A       _Dist2D
 484F:01DC       _Dist3D
 484F:0215       _Rotate
 484F:0282       _Mult3X3
 484F:02DE       _Trans3X3
 484F:0310       _Copy3X3
 484F:032A       _Mult1X3
 484F:03C0       _MakeMatHPR
 484F:04EE       _GetHPR
 484F:057B       _TMUL
 484F:058D       _MulDiv
 484F:05C8       _MDiv
 484F:05D6       _LDIV
 484F:060D       _LMUL
 484F:0618       _LDIVI
 484F:0626       _MakeMatRPH
 484F:0752       _SUMOFSQUARES
 48C6:0006       _MCGAColors
 48D1:0010       _MaskCopy
 48D1:0020       _MASKCOPYSKEW
 48D1:00B3       _BuildMask
 48D1:0147       _FlirCopy
 48ED:0006       _FlagRotate3D
 48ED:006D       _Perspect3D
 48ED:00FF       _ZClip
 48ED:01D4       _NPFLine
 48ED:0552       _NPFFill
 48ED:0B70       _MulDiv32
 48ED:0B87       _LONGDIV
 48ED:0B9C       _NSetViewMat
 48ED:0C63       _fmemfill
 48ED:0C99       _FILLSCREEN
 48ED:0CB8       _fmemcpy
 48ED:0CED       _DotProduct
 48ED:0D2E       _NScaleLine
 48ED:0DAF       _NScaleLine2
 48ED:0E36       _NCloudLine
 48ED:0EB8       _NCloudLine2
 48ED:0F48       _NCloudLine3
 48ED:0FBC       _NXSLine
 48ED:0FF7       _NXSADDLine
 48ED:1021       _NCLOUDFILLLINE2
 48ED:104D       _NDLine
 48ED:1193       _NDDot
 48ED:11EF       _CheckPointRot
 48ED:1357       _MakeBspDrawList
 48ED:1376       _BuildPolyList
 48ED:1463       _MYWATERLINE
 48ED:15B5       _MYWATERLINE2
 4A5B:0000       _TrgMul
 4A5B:0016       _DPTRGMUL
 4A5B:0025       _MUL256DIV
 4A5B:0057       _Icos
 4A5B:0063       _Isin
 4A5B:006F       F_SINDP
 4A5B:0073       F_COSDP
 4A64:000A       _TransScaleLine
 4A64:007C       _TacTransScaleLine
 4A71:0004       SETOVRLYRP
 4A71:0004       FIXEGA
 4A72:0000       _CockpitLights
 4A90:0000       _NULLCOLORS
 4AA0:0000       _AAFIRE
 4F19:0000       _GRTBLSEG
 5019:0000       _MAPBUF
 5419:0000       _HsdMask
 5419:0258       _DawnPal
 5419:0558       _carrier
 5419:0628       _MAPCOLORS
 5419:0728       _objhndls
 5419:0B28       _STACK3D
 5419:0E68       _TopCockpitMask
 5419:2128       _ElevMask
 5419:25D8       _emspageuse
 5419:29DA       _SYMBOLS
 5419:2A02       _AdiMask
 5419:2B56       _NitePal
 5419:2E56       _DDDMask
 5419:3546       _emsfiles
 5419:5D5A       _OBJECTS
 5419:815A       _GROUPMAPCOLORS
 5419:81BA       _RawMask
 5419:832C       _DuskPal
 5419:862C       _VdiMask
 5419:8820       _Palette
 5419:8B20       _DayPal
 5419:8E20       _LookDownLMask
 5419:8F24       _TIDMask
 5419:92E4       _THREATS
 5419:93AC       _POINTS
 5419:C32C       _LookDownRMask
 6058:007E       _PlaneDataSize
 6058:0080       _MissileDataSize
 6058:0082       _RadarDataSize
 6058:0084       _planerecsize
 6058:0086       _missilerecsize
 6058:0088       _radarrecsize
 6058:008A       _EMS3DObjectSlot
 6058:076E       _CarrierAmerica
 6058:078A       _CarrierNimitz
 6058:07A6       _CarrierSaratoga
 6058:07C2       _CoolF14Objects
 6058:07D4       _CoolF14Tails
 6058:0800       _Missiles
 6058:080E       _MiscSpecial
 6058:0820       _OldHandle
 6058:0822       _Object
 6058:0824       _OX
 6058:0826       _OY
 6058:0828       _OZ
 6058:082A       _SecondMatrix
 6058:0832       _Dist2Obj
 6058:0834       _Class
 6058:0836       _VX
 6058:0838       _VY
 6058:083A       _VZ
 6058:083C       _SinHead
 6058:083E       _CosHead
 6058:0840       _SinPitch
 6058:0842       _CosPitch
 6058:0844       _SinRoll
 6058:0846       _CosRoll
 6058:0848       _V
 6058:085A       _O
 6058:086C       _C
 6058:0880       _LIGHTS
 6058:0882       _PLANEDETAIL
 6058:0884       _WingRot
 6058:0886       _HookDown
 6058:0888       _HookRot
 6058:088A       _slposx
 6058:088C       _slposy
 6058:088E       _pflashtbl
 6058:0896       _CoolObj
 6058:0A16       _MedAnimVals
 6058:0A98       _MODE_MASTER
 6058:0A9A       _MODE_NAV
 6058:0A9C       _MODE_AA
 6058:0A9E       _F14_STATION
 6058:0AB6       _OurLoadOut
 6058:0AB8       _ORDNANCE
 6058:0CCA       _LastCall
 6058:0D1E       _SELECTED_BAR_NUM
 6058:0D20       _SELECTED_AZ
 6058:0D22       _AWG9_REALITY_LEVEL
 6058:0D24       _RIO_ASSIST
 6058:0D26       _AWG9_MODE
 6058:0D28       _MAXRNG
 6058:0D2A       _MINRNG
 6058:0D2C       _RANGES
 6058:0D38       _BRANGES
 6058:0D44       _RANGE
 6058:0D46       _LOCKSHOOT
 6058:0D60       _DesigTargCnt
 6058:0D62       _DataLinkCnt
 6058:0D64       _DataLink
 6058:0D66       _NumBars
 6058:0D68       _AZSWEEP
 6058:0D6A       _ModerateMode
 6058:0D6C       _InRangeFlash
 6058:0E50       _junktime
 6058:0ECE       _CarrierScale
 6058:0ED0       _CARRIERSCALEKLUDGE
 6058:0ED2       _PlaneScale
 6058:0ED4       _StormLevel
 6058:0ED6       _WireCaught
 6058:0ED8       _PreparePlaneWings
 6058:1004       _HorzHeave
 6058:1006       _Heaving
 6058:1008       _HeavAngle
 6058:100A       _HeaveDir
 6058:100C       _CATVEL
 6058:100E       _TimeOnHook
 6058:1010       _WavedOff
 6058:1012       _BallCalled
 6058:1014       _LSOMSGTIME
 6058:1058       _debugstr
 6058:10D0       _landpt
 6058:10D2       _LandPat
 6058:12CA       _NiteLandPat
 6058:1452       _Coursestr
 6058:1470       _Slopestr
 6058:148E       _Rangestr
 6058:14AC       _Decentstr
 6058:14D4       _lastlso
 6058:14D6       _lsomsgptrs
 6058:14EC       _AvailCat
 6058:14F4       _BlastShield
 6058:14FC       _CatReady
 6058:1504       _WingsReady
 6058:1506       _mapmode
 6058:1508       _PauseHit
 6058:150A       _TickDelay
 6058:150C       _KbSense
 6058:150E       _DBlaunch
 6058:1510       _ThrustChange
 6058:1512       _MouseCrtX
 6058:1514       _MouseCrtY
 6058:1516       _MouseDsp
 6058:1518       _ShowMouse
 6058:151A       _tempsound
 6058:151C       _tempsound2
 6058:151E       _SteadyHead
 6058:1520       _SteadyPitch
 6058:1522       _RUDDERVALS
 6058:1524       _FrontTopSpots
 6058:1542       _FrontLeftSpots
 6058:157E       _FrontRightSpots
 6058:1588       _BackTopSpots
 6058:1650       _BackBotSpots
 6058:16A0       _BackLeftSpots
 6058:1890       _ls
 6058:194E       _CockpitFiles
 6058:1966       _Lengths
 6058:197E       _MASTER_CAUTION
 6058:1980       _RadarRepeat
 6058:1982       _BackSeat
 6058:1984       _Panning
 6058:1986       _DeClutter
 6058:1988       _LLowFuelWarn
 6058:198A       _RLowFuelWarn
 6058:198C       _BingoFuelWarn
 6058:198E       _OutsideWidth
 6058:1990       _OutsideLength
 6058:1992       _RpCX1
 6058:19A4       _RpCRT1
 6058:19A6       _RpCX2
 6058:19B8       _RpCRT2
 6058:19BA       _RpCX3
 6058:19CC       _RpCRT3
 6058:19CE       _RpCX4
 6058:19E0       _RpCRT4
 6058:19E2       _RpCX5
 6058:19F4       _RpCRT5
 6058:19F6       _RpCX6
 6058:1A08       _RpCRT6
 6058:1A0A       _RpCX7
 6058:1A1C       _RpCRT7
 6058:1A1E       _CrtRps
 6058:1A2E       _CrtConfig
 6058:1A3E       _CurCRT
 6058:1A40       _MasterArmSW
 6058:1A42       _JetisonSW
 6058:1A44       _Lightemup
 6058:1A46       _lighton
 6058:1A48       _VdiMode
 6058:1A4A       _msiz
 6058:1A4C       _EgtL
 6058:1A4E       _EgtR
 6058:1A50       _RadarRange
 6058:1B8A       _NEMSSEG
 6058:1B8C       _EMSHANDLE
 6058:1B8E       _EMSPagesFree
 6058:1B90       _EMSPagesGrabbed
 6058:1B92       _NOTEXTURE
 6058:1B98       _ZHEAD
 6058:1C38       _ReqdGees
 6058:1CB8       _Weight
 6058:1CBA       _FM
 6058:1CCC       _HC
 6058:1CDE       _PC
 6058:1CF0       _RC
 6058:1D02       _TM
 6058:1D14       _OurHead
 6058:1D16       _OurPitch
 6058:1D18       _OurRoll
 6058:1D1A       _Alt
 6058:1D1C       _OurAlt
 6058:1D1E       _OldAlt
 6058:1D20       _RadarAlt
 6058:1D24       _TrimAOA
 6058:1D26       _FrameCnt
 6058:1D2A       _PrevRoll
 6058:1D2B       _PrevAOA
 6058:1D2C       _AOARepCnt
 6058:1D2D       _PrevROLLRATE
 6058:1D2E       _RollRepCnt
 6058:1D30       _REALFLIGHT
 6058:1D32       _THRUST
 6058:1D34       _GAMNT
 6058:1D62       _DNSTSQR
 6058:1E14       _W_WEIGHTS
 6058:1E42       _loadout
 6058:1E5E       _loadstrs
 6058:1E6C       _MYLOAD
 6058:1E6E       _LOADDRAG
 6058:1E70       _loadoutweight
 6058:1E72       _DEBG1
 6058:1E74       _DEBG2
 6058:1E76       _AUTOCARLAND
 6058:1E78       _ONTHECAT
 6058:1E7A       _ONTHEHOOK
 6058:1E7C       _ScottFlightMode
 6058:1E7E       _ScottLandingMode
 6058:1E80       _LSORating
 6058:1E82       _tchdwnrating
 6058:1E84       _TRIM
 6058:1E86       _GTABLE
 6058:1EB4       _DNSTBL
 6058:1ED6       _MAXENGAIR
 6058:1EEC       _MILENGAIR
 6058:1F02       _STTBL
 6058:1F44       _GEFFECT
 6058:1F46       _PRESSUREBLACK
 6058:1F48       _FASTROLL
 6058:1F4A       _OldAutoAlt
 6058:1F4C       _OLDAOA
 6058:1F4E       _OLDSLEW
 6058:1F50       _SLEW
 6058:1F52       _TFAS
 6058:1F92       _TFAPTR
 6058:1F94       _TFAPTRCNT
 6058:1F96       _ROLLINERTIA
 6058:1F9A       _DirectLiftControl
 6058:1F9C       _DIRECTLIFTSPEED
 6058:1F9E       _DEBUG1
 6058:1FA0       _DEBUG2
 6058:1FCC       _AutoTrim
 6058:2004       _fueltime
 6058:2006       _MilFuelTBLperhour
 6058:2026       _MaxFuelTBLperhour
 6058:2042       _MilFuelTBL
 6058:2052       _MaxFuelTBL
 6058:20CE       _MYCLCD
 6058:20D0       _MYCP
 6058:20D2       _MYTFACT
 6058:2156       _WorldColor
 6058:2256       _SelectedPal
 6058:2258       _LightsOn
 6058:225A       _OverG
 6058:225C       _PaletteChanged
 6058:225E       _HUDFilterMode
 6058:2262       _OldG
 6058:2264       _OldOvercast
 6058:2270       _BlueFlame
 6058:2288       _OrangeFlame
 6058:2352       _ExitCode
 6058:2354       _ExitErrorCode
 6058:2356       _DisplayFrame
 6058:2358       _F14SNUM
 6058:235C       _F14SCNUM
 6058:2360       _F14CNUM
 6058:236A       _F14SNAME
 6058:23A6       _F14SPER
 6058:23E2       _F14VNUM
 6058:23EC       _DifficultyLevel
 6058:2622       _REJECTDIST
 6058:263C       _GREYSEG
 6058:263E       _CLOUDSEG
 6058:2640       _cldhndl
 6058:2642       _CLOUDHEIGHT
 6058:2644       _LASTSTACK
 6058:2646       _FARSTACK
 6058:2648       _OBJSEG
 6058:264A       _PLANESEG
 6058:264C       _ABOVECLOUDS
 6058:264E       _MTNDETAIL
 6058:2650       _GRNDDETAIL
 6058:2652       _OBJECTDETAIL
 6058:2654       _OVERCAST
 6058:2656       _SKYDETAIL
 6058:2658       _MTNRAD
 6058:265A       _STKWID
 6058:2668       _MYWID
 6058:266C       _GFLSH
 6058:2688       _HRMscale
 6058:268A       _HRMChanged
 6058:268C       _HRMTime
 6058:268E       _MapRangeBad
 6058:2690       _CheckingHRMLimits
 6058:26BA       _hsdmode
 6058:26F0       _TB_CTRX
 6058:26F2       _TB_CTRY
 6058:2706       _HDGRp
 6058:271A       _PLRp
 6058:272E       _RBRp
 6058:2730       _TDBRpX
 6058:2742       _TDBRp
 6058:28CA       _RpJoyX
 6058:28DC       _RpJoy
 6058:2A40       _Mscale
 6058:2A42       _Mapx
 6058:2A44       _Mapy
 6058:2FF6       _MsgOnScreen
 6058:3004       _MSGRp
 6058:3016       _MRp
 6058:3018       _lastmsgview
 6058:301A       _LastMsgSeat
 6058:301C       _newmsg
 6058:301E       _MyMSG
 6058:3096       _MyMSGTYP
 6058:3098       _msgtime
 6058:309A       _Mupdate
 6058:309C       _MsgEMS
 6058:30CA       __mono_attribute
 6058:30CC       __mono_x
 6058:30CE       __mono_y
 6058:30D0       __mono_loc
 6058:30D4       _IdentInvMat
 6058:30F8       _Scale3d
 6058:30FA       _POINTBUF
 6058:30FE       _LEV
 6058:3100       _CLIPZ
 6058:3104       _LandObjectBase
 6058:3106       _PLAINVAL
 6058:3108       _MAXLEV
 6058:3138       _lastcatused
 6058:313A       _sotnum
 6058:313C       _friendfire
 6058:313E       _enemyfire
 6058:3140       _PlanesLaunched
 6058:3142       _AIWingMan
 6058:3144       _tempvar
 6058:3146       _tempbehavevar
 6058:3148       _MyWingy
 6058:314A       _OtherAIDo
 6058:314C       _OtherAITime
 6058:314E       _AIWingMenu
 6058:3150       _AIWingMenuTime
 6058:3724       _targetplayer
 6058:3726       _timetargetplayer
 6058:3A66       _RpX1
 6058:3A78       _Rp1
 6058:3A7A       _RpX2
 6058:3A8C       _Rp2
 6058:3A8E       _RpX3
 6058:3AA0       _Rp3
 6058:3AA2       _RpHudX
 6058:3AB4       _RpHud
 6058:3AB6       _RpX3D
 6058:3AC8       _Rp3D
 6058:3ACA       _RioHead
 6058:3B9C       _RioLeftShould
 6058:3C52       _RioLeftArm
 6058:3CA6       _RioRightShould
 6058:3D40       _RioAnim
 6058:3DB8       _AnimCnt
 6058:3DBA       _TestIt
 6058:3DBC       _head_proj_x
 6058:3DBE       _head_proj_y
 6058:3DC0       _head_proj_z
 6058:3DC2       _behindus
 6058:3DC4       _closeplane
 6058:3DE0       _NextRioTime
 6058:3DE2       _iconmode
 6058:4152       __current_mode
 6058:4154       __current_video_mode
 6058:4156       __current_video_font
 6058:4158       __current_video_rows
 6058:415A       _SndPriority
 6058:415C       _CanDoSpeech
 6058:415E       _SoundFile
 6058:416A       _SpeechDriver
 6058:4192       _InXPLO
 6058:4194       _XPLODETAIL
 6058:4196       _SPRTVLS
 6058:44E8       _XPLOANIMS
 6058:4504       _wps
 6058:4534       _NextWayPoint
 6058:4536       _ChangeWayPoint
 6058:4538       _PlaneDataList
 6058:453C       _RadarDataList
 6058:4540       _MissileDataList
 6058:4544       _PlaneDataListCnt
 6058:4546       _RadarDataListCnt
 6058:4548       _MissileDataListCnt
 6058:454A       _Damaged
 6058:454C       _Status
 6058:454E       _Fuel
 6058:4550       _Stores
 6058:4558       _Rounds
 6058:455A       _AutoAlt
 6058:455C       _Diff
 6058:455E       _Night
 6058:4560       _FrameRate
 6058:4562       _NDECOY
 6058:4564       _ds
 6058:46F0       _Rtime
 6058:46F2       _QTime
 6058:46F4       _QTimer
 6058:46F6       _FrameRate10
 6058:46F8       _FTicks
 6058:46FA       _AutoGearOk
 6058:46FC       _detected
 6058:46FE       _atarg
 6058:4700       _gtarg
 6058:4702       _OldClose
 6058:4704       _Speedy
 6058:4706       _AutoLand
 6058:4708       _nextlog
 6058:4768       _tacx
 6058:476A       _tacy
 6058:476C       _tacz
 6058:479C       _JAMMER_ACTIVE
 6058:479E       _JAMMER
 6058:47C8       _GunRp
 6058:47DA       _GunZoom
 6058:47DC       _DesignateMode
 6058:47DE       _TIDTargetCnt
 6058:47E0       _TID_MODE
 6058:483E       _inity
 6058:4974       _vScale
 6058:4976       _PadHead
 6058:4978       _PadPitch
 6058:497A       _PadLockee
 6058:599A       _LINEBUF
 6058:75B4       _identitymat
 6058:75D8       _viewmat
 6058:780E       _ZUMEFACTOR
 6058:781C       _NOASPECT
 6058:781E       _OUTLINE
 6058:7830       _CLIPPTR
 6058:7832       _PalPtr3D
 6058:7834       _CLRSWAPPTR3D
 6058:7836       _LIGHTX
 6058:7838       _LIGHTY
 6058:783A       _LIGHTZ
 6058:7840       _PARALLEL
 6058:7842       _DEFAULTPAL
 6058:7A42       _Seg3D
 6058:7AA2       _ctrl_b_flag
 6058:7AAE       _GMODE
 6058:7AB0       _GWORKPAGE
 6058:7AB2       _GDISPLAYPAGE
 6058:7AB4       _GXLO
 6058:7AB6       _GYLO
 6058:7AB8       _GXHI
 6058:7ABA       _GYHI
 6058:7ABC       _GXMID
 6058:7ABE       _GYMID
 6058:7AC0       _GCOLOR
 6058:7AC2       _GROW
 6058:7AC4       _GCOL
 6058:7AC6       _GFONT
 6058:7AC8       _GFCOLOR
 6058:7ACA       _GBCOLOR
 6058:7ACC       _GRPAGE0
 6058:7ACE       _GRPAGE1
 6058:7AD0       _GRPAGE2
 6058:7AD2       _GRPAGE3
 6058:7AD4       _GRPAGE
 6058:7AD6       _MODEBLOCK
 6058:7AD6       _LINEST
 6058:7F98       _FILLTRANSTBL
 6058:7FDE       _EMSseg
 6058:7FE0       _EMSERR
 6058:7FE2       _MinStick
 6058:7FE2       _JoyVals
 6058:7FEA       _MaxStick
 6058:7FF2       _CenterPosition
 6058:7FFA       _LowRange
 6058:8002       _HighRange
 6058:800A       _RawJoy
 6058:8016       _DeadZone
 6058:801C       _KeyJoyX
 6058:801D       _KeyJoyY
 6058:806C       _NGXLO32
 6058:806C       _NGXLO
 6058:8070       _NGYLO32
 6058:8070       _NGYLO
 6058:8074       _NGXHI32
 6058:8074       _NGXHI
 6058:8078       _NGYHI32
 6058:8078       _NGYHI
 6058:807C       _NGXMID
 6058:807E       _NGYMID
 6058:8088       _Nviewmat
 6058:81E6       _NTRANSGREYPTRS
 6058:81E8       _TRGTB
 6058:84EA       _FlirTbl
 6058:85EA       XBGN
 6058:85EC       YBGN
 6058:85EE       CLIPWD
 6058:85F0       CLIPLN
 6058:8626       _edata
 6058:8980       _MeatBall
 6058:8982       _DigFlushQueue
 6058:8986       _TIDTargetList
 6058:8A16       _TILECOLORS
 6058:8A1A       _VCent
 6058:8A1C       _MissileListSeg
 6058:8A1E       _minTimeAloft
 6058:8A20       _Txt
 6058:8A70       _PitchAngle
 6058:8A72       _DOINVISIBLE
 6058:8A74       _PovPitch
 6058:8A76       _LASTPLANE
 6058:8A78       _DESIGNATED
 6058:8A7A       _WORLDXPOS
 6058:8A7E       _AAACnt
 6058:8A80       _RadarCursorSprite
 6058:8A86       _CLOSURE
 6058:8A88       _Gees
 6058:8A8A       _RadarListSeg
 6058:8A8C       _Gtime
 6058:8A8E       _Firing
 6058:8A90       _File
 6058:8A92       _ImHit
 6058:8A94       _LOCKED
 6058:8A96       _PoliticallyCorrectNumlock
 6058:8A98       _droll
 6058:8A9A       _CloseDist
 6058:8A9E       _boatnum
 6058:8AA0       _AITREL
 6058:8AA2       _Fencer
 6058:8AA4       _lastOClock
 6058:8AA6       _ag_msg
 6058:8AA8       _GREYBUF
 6058:8AAC       _WORLDZPOS
 6058:8AB0       _orgPlayernum
 6058:8AB2       _ConfigData
 6058:8ACE       _AGEDTARGFILE
 6058:8AD0       _NERADAR
 6058:8AD2       _OurCallSign
 6058:8AE6       _PDT_ALT_100
 6058:8AE8       _FIRINGORDERLIST
 6058:8B48       _LastRate
 6058:8B4A       _tempx
 6058:8B4C       _WingID
 6058:8B52       _Screen
 6058:8B56       _MyMouseHits
 6058:8B58       _aiactions
 6058:8D60       _IneffectiveHit
 6058:8D62       _TEWSprites
 6058:8D6E       _tempy
 6058:8D70       _SHOOT
 6058:8D72       _DigStatus
 6058:8D76       _TargetObj
 6058:8D78       _DMAX9
 6058:8D7A       _LP
 6058:8D82       _World
 6058:8D84       _AZSWEEP_DIR
 6058:8D86       _MinSpd
 6058:8D88       _TARGFILE
 6058:8D8A       _PovMisl
 6058:8D8C       _WaveSpeed
 6058:8D8E       _DESIG_TARGF
 6058:8DC0       _OBJ
 6058:8DC2       _bv
 6058:9AE2       _MsgCount
 6058:9AEC       _LastSpike
 6058:9AEE       _gt
 6058:9DBE       _MissileAnimVals
 6058:9DDE       _CrtUpdate
 6058:9DEE       _AirSpeed
 6058:9DF0       _olddog
 6058:9DF2       _chs
 6058:9EF2       _VM
 6058:9F04       _lfpx
 6058:9F08       _Rdrs
 6058:A098       _Knots
 6058:A09A       _tempgotcha
 6058:A09C       _AIDETECT
 6058:A09E       _lfpy
 6058:A0A2       _NTRACE
 6058:A0A4       _warstatus
 6058:A0A6       _PlaneListSeg
 6058:A0A8       _DRAWPTR
 6058:A0AA       _Direction
 6058:A0AC       _ThrustI
 6058:A0AE       _NGTARGETS
 6058:A0B0       _KnockItOffStatus
 6058:A0B2       _OurPath
 6058:A0B4       _Rp
 6058:A0B6       _ObjHands
 6058:A0C0       _RudderStick
 6058:A0C2       _ms
 6058:A0EC       _TimeOfDay
 6058:A0EE       _AIBOMBX
 6058:A0F2       _AIBOMBY
 6058:A0F6       _LASTOBJ
 6058:A0F8       _ptype
 6058:A0FC       _LandingVel
 6058:A0FE       _proj_x
 6058:A100       _TotalGameTicks
 6058:A104       _Source
 6058:A108       _IFF_timer
 6058:A10A       _ViewX
 6058:A10E       _HudSprite1
 6058:A110       _ps
 6058:AC00       _xlast
 6058:AC04       _MenuSpr1
 6058:AC06       _TSpeed
 6058:AC08       _ViewY
 6058:AC0C       _LandingAngle
 6058:AC0E       _proj_y
 6058:AC10       _mS1n
 6058:AC12       _chuteDZ
 6058:AC14       _MenuSpr2
 6058:AC16       _AOAttack
 6058:AC18       _landingstatus
 6058:AC1A       _mS2n
 6058:AC1C       _ylast
 6058:AC20       _MenuSpr3
 6058:AC22       _ViewZ
 6058:AC24       _BEAM_HDG
 6058:AC26       _LastMisl
 6058:AC28       _ObjSegs
 6058:AC32       _zlast
 6058:AC36       _DigQueue
 6058:AC3A       _CloudCeiling
 6058:AC3C       _vRoll
 6058:AC3E       _KEYPRINT2
 6058:AC40       _RpCRT
 6058:AC42       _WPMode
 6058:AC44       _ThrustStick
 6058:AC46       _proj_z
 6058:AC48       _ss
 6058:B118       _planecnt
 6058:B11A       __ctype
 6058:B11C       _AIRTGT
 6058:B11E       _TARGFILE0CNT
 6058:B120       _HudSprite3
 6058:B122       _DataLinkList
 6058:B132       _PxLng
 6058:B136       _AITTGT
 6058:B138       _firstbehaveshow
 6058:B13A       _Tscale
 6058:B13C       _TARGFILE1CNT
 6058:B13E       _GroundObjectScale
 6058:B140       _WaveHeight
 6058:B142       _XEB
 6058:C942       _GROUPCOLORS
 6058:C946       _gamelog
 6058:CD46       _HudSprite4
 6058:CD48       _PyLng
 6058:CD4C       _YEB
 6058:CD50       _AnimVals
 6058:CD90       _TRANSGREYPTRS
 6058:CD92       _ejected
 6058:CD94       _carrmoveok
 6058:CD96       _LastSlotNMount
 6058:CD98       _ZEB
 6058:CD9C       _SHADOWCOLORS
 6058:CE9C       _STEER_DOT
 6058:CE9E       _ScreenAddr
 6058:CEA2       _OurWingName
 6058:CEB6       _AutoHead
 6058:CEB8       _View
 6058:CEBA       _HudSprite5
 6058:CEBC       _NTRACE2
 6058:CEBE       _GLowDroll
 6058:CEC0       _MikeHeight
 6058:CEC2       _PW
 6058:CEC4       _vPitch
 6058:CEC6       _CloseGuy
 6058:CEC8       _lastadded
 6058:CECA       _Accel
 6058:CECC       _MsgSrc
 6058:CED6       _GroundObjectNames
 6058:CED8       _TransAmount
 6058:CEDA       _aiwaypoints
 6058:D380       _DESIGNATED_X
 6058:D384       _Px
 6058:D386       _MinAlt
 6058:D388       _oldAltval
 6058:D38A       _DESIGNATED_Y
 6058:D38E       _chuteX
 6058:D390       _RealLandings
 6058:D392       _aipaths
 6058:D4D2       _SNDDETAIL
 6058:D4D4       _PDT_ALT_1000
 6058:D4D6       _Py
 6058:D4D8       _NRADAR
 6058:D4DA       _chuteY
 6058:D4DC       _sx
 6058:D4DE       _HudMsg
 6058:D60A       _STAMPCOLORS
 6058:D60E       _ACQ_PX
 6058:D610       _D
 6058:D61E       _ADDRESS
 6058:D89E       _chuteZ
 6058:D8A0       _WORLDXTRAX
 6058:D8A2       _BXBS
 6058:D8A6       _PlayerCat
 6058:D8A8       _DigShutDown
 6058:D8AC       _AGEDTARGFILECNT
 6058:D8AE       _sy
 6058:D8B0       _CRASHED
 6058:D8B2       _ACQ_PY
 6058:D8B4       __acrtused
 6058:D8B6       _ROLLRATE
 6058:D8B8       _MSGDETAIL
 6058:D8BA       _XSpot
 6058:D8BE       _KEYPRINT
 6058:D8C0       _WORLDXTRAY
 6058:D8C2       _BitMaps
 6058:D8D2       _OBJDISTS
 6058:D952       _ACQLIST
 6058:D9B2       _GROUPBUF
 6058:D9B4       _MLAUNCH
 6058:D9B6       _sz
 6058:D9B8       _spotflags
 6058:DA00       _Povx
 6058:DA04       _PREV_DESIG_TARGF
 6058:DA36       _lox
 6058:DA3A       _ZSpot
 6058:DA3E       _Povy
 6058:DA42       _loy
 6058:DA46       _WORLDXTRAZ
 6058:DA48       _ENEMYNODIE
 6058:DA4A       _ejectX
 6058:DA4C       _Povz
 6058:DA4E       _CrtDisplays
 6058:DA5E       _RPov
 6058:DA60       _ailoc
 6058:DC90       _SelectedTarg
 6058:DC92       _TARGFILECNT
 6058:DC94       _CarrierAnimVals
 6058:DCF4       _ntmp
 6058:DCFE       _behavecommands
 6058:DD00       _SMOKES
 6058:DF1C       _PDT_PROJ_X
 6058:DF1E       _PTBS
 6058:DF22       _HighlightTarg
 6058:DF24       _ejectY
 6058:DF26       _CUR_BAR
 6058:DF28       _planelanding
 6058:DF2A       _PlaneAnimVals
 6058:DF6A       _whichourcarr
 6058:DF6C       _PDT_PROJ_Y
 6058:DF6E       _ejectZ
 6058:DF70       _BAD_GUY
 6058:DF72       _XYDSP
 6058:DFAA       _OBJSCALES
 6058:DFEA       _MouseSprite
 6058:DFEC       _AWG9_SNIFF
 6058:DFEE       _STAMPLIGHTS
 6058:E04E       _FIRINGORDERCNT
 6058:E050       _ACQLISTCNT
 6058:E052       _Button
 6058:E054       _ag_msg_cnt
 6058:E056       _STAMPBUF
 6058:E058       _BEAM_PIT
 6058:E05A       _NPLANES
 6058:E05C       _MISSILETRAIL
 6058:E05E       _AAAi
 6058:E086       _FPARAMS
 6058:E0B0       _BEAM_ROL
 6058:E0B2       _ClrTarg
 6058:E0B4       _CloseBase
 6058:E0B8       _WORLDXOFF
 6058:E0BA       _DAMAGELITE
 6058:E0DA       __mono_buffer
 6058:E8AA       _FBPTR
 6058:E8AC       _FLSHXOFF
 6058:E8AE       _S
 6058:E8B6       _OB
 6058:E8FE       __training
 6058:E900       _HCent
 6058:E902       _HitMe
 6058:E904       _XBASE
 6058:E906       _DigSysSetup
 6058:E90A       _AOARATE
 6058:E90C       _DESIG_TARG
 6058:E93C       _oldFPX
 6058:E940       _WORLDYOFF
 6058:E942       _MinKnots
 6058:E944       _vHead
 6058:E946       _FLSHZOFF
 6058:E948       _BelowDeck
 6058:E94A       _trs
 6058:EC1A       _GrndAnimVals
 6058:EC5A       _ZBASE
 6058:EC5C       _Joystick
 6058:EC5E       _NPDEST
 6058:EC62       _DETECTED_TARG
 6058:ECEE       _WORLDZOFF
 6058:ECF0       _FuelFlow
 6058:ECF4       _LastMud
 6058:ECF6       _NTARGET
 6058:ECF8       _BSPBASE
 6058:ECFC       _TTI
 6058:ECFE       _lastCounter
 6058:ED00       _HRM_RANGES
 6058:ED02       _DoPitchLines
 6058:ED04       _StickType
 6058:ED06       _WORLDDETAIL
 6058:ED08       _MissionWeather
 6058:ED0A       _FIRST_ENEMY_TRACE
 6058:ED0C       _AAAX
 6058:ED5C       _sightX
 6058:ED5E       _MouseX
 6058:ED60       _oldFPZ
 6058:ED64       _InFriendly
 6058:ED66       _AAAY
 6058:ED68       _bogusx
 6058:ED6A       _AAAZ
 6058:EDBA       _PLYR_M
 6058:EDCC       _STEER_DOT_X
 6058:EDCE       _sightY
 6058:EDD0       _MouseY
 6058:EDD2       _STEER_DOT_Y
 6058:EDD4       _BEND
 6058:EDD6       _TILEBUF
 6058:EDD8       _bogusy
 6058:EDDA       _DigAllOff
 6058:EDDE       _PDT_PROJ
 6058:EDE0       _ASPECT_S
 6058:EDE6       _BingoFuel
 6058:EDE8       _bogusz
 6058:EDEA       _SndData
 6058:EDF8       _VVI
 6058:EDFA       _paratroopers
 6058:EE9A       _TARGFILE0
 6058:F34A       _CrtMask
 6058:F34E       _PDT_RNG
 6058:F350       _CoolyStick
 6058:F352       _ASE_RADIUS
 6058:F354       _TARGFILE1
 6058:F804       _whichdefensethreat
 6058:F890       _CLOUDAMNT
 6058:F892       _pdest
 6058:F894       _lodetailcqr

Segments              93
Groups                1
Bytes in symbol table  98352
